ARM GAS  /tmp/ccqJv02S.s 			page 1


   1              		.cpu cortex-m3
   2              		.eabi_attribute 20, 1
   3              		.eabi_attribute 21, 1
   4              		.eabi_attribute 23, 3
   5              		.eabi_attribute 24, 1
   6              		.eabi_attribute 25, 1
   7              		.eabi_attribute 26, 1
   8              		.eabi_attribute 30, 1
   9              		.eabi_attribute 34, 1
  10              		.eabi_attribute 18, 4
  11              		.file	"stm32f1xx_hal_dma.c"
  12              		.text
  13              	.Ltext0:
  14              		.cfi_sections	.debug_frame
  15              		.section	.text.DMA_SetConfig,"ax",%progbits
  16              		.align	1
  17              		.syntax unified
  18              		.thumb
  19              		.thumb_func
  20              		.fpu softvfp
  22              	DMA_SetConfig:
  23              	.LFB76:
  24              		.file 1 "Drivers/STM32F1xx_HAL_Driver/Src/stm32f1xx_hal_dma.c"
   1:Drivers/STM32F1xx_HAL_Driver/Src/stm32f1xx_hal_dma.c **** /**
   2:Drivers/STM32F1xx_HAL_Driver/Src/stm32f1xx_hal_dma.c ****   ******************************************************************************
   3:Drivers/STM32F1xx_HAL_Driver/Src/stm32f1xx_hal_dma.c ****   * @file    stm32f1xx_hal_dma.c
   4:Drivers/STM32F1xx_HAL_Driver/Src/stm32f1xx_hal_dma.c ****   * @author  MCD Application Team
   5:Drivers/STM32F1xx_HAL_Driver/Src/stm32f1xx_hal_dma.c ****   * @version V1.1.1
   6:Drivers/STM32F1xx_HAL_Driver/Src/stm32f1xx_hal_dma.c ****   * @date    12-May-2017
   7:Drivers/STM32F1xx_HAL_Driver/Src/stm32f1xx_hal_dma.c ****   * @brief   DMA HAL module driver.
   8:Drivers/STM32F1xx_HAL_Driver/Src/stm32f1xx_hal_dma.c ****   *         This file provides firmware functions to manage the following
   9:Drivers/STM32F1xx_HAL_Driver/Src/stm32f1xx_hal_dma.c ****   *         functionalities of the Direct Memory Access (DMA) peripheral:
  10:Drivers/STM32F1xx_HAL_Driver/Src/stm32f1xx_hal_dma.c ****   *           + Initialization and de-initialization functions
  11:Drivers/STM32F1xx_HAL_Driver/Src/stm32f1xx_hal_dma.c ****   *           + IO operation functions
  12:Drivers/STM32F1xx_HAL_Driver/Src/stm32f1xx_hal_dma.c ****   *           + Peripheral State and errors functions
  13:Drivers/STM32F1xx_HAL_Driver/Src/stm32f1xx_hal_dma.c ****   @verbatim
  14:Drivers/STM32F1xx_HAL_Driver/Src/stm32f1xx_hal_dma.c ****   ==============================================================================
  15:Drivers/STM32F1xx_HAL_Driver/Src/stm32f1xx_hal_dma.c ****                         ##### How to use this driver #####
  16:Drivers/STM32F1xx_HAL_Driver/Src/stm32f1xx_hal_dma.c ****   ==============================================================================
  17:Drivers/STM32F1xx_HAL_Driver/Src/stm32f1xx_hal_dma.c ****   [..]
  18:Drivers/STM32F1xx_HAL_Driver/Src/stm32f1xx_hal_dma.c ****    (#) Enable and configure the peripheral to be connected to the DMA Channel
  19:Drivers/STM32F1xx_HAL_Driver/Src/stm32f1xx_hal_dma.c ****        (except for internal SRAM / FLASH memories: no initialization is 
  20:Drivers/STM32F1xx_HAL_Driver/Src/stm32f1xx_hal_dma.c ****        necessary). Please refer to the Reference manual for connection between peripherals
  21:Drivers/STM32F1xx_HAL_Driver/Src/stm32f1xx_hal_dma.c ****        and DMA requests.
  22:Drivers/STM32F1xx_HAL_Driver/Src/stm32f1xx_hal_dma.c **** 
  23:Drivers/STM32F1xx_HAL_Driver/Src/stm32f1xx_hal_dma.c ****    (#) For a given Channel, program the required configuration through the following parameters:
  24:Drivers/STM32F1xx_HAL_Driver/Src/stm32f1xx_hal_dma.c ****        Channel request, Transfer Direction, Source and Destination data formats,
  25:Drivers/STM32F1xx_HAL_Driver/Src/stm32f1xx_hal_dma.c ****        Circular or Normal mode, Channel Priority level, Source and Destination Increment mode
  26:Drivers/STM32F1xx_HAL_Driver/Src/stm32f1xx_hal_dma.c ****        using HAL_DMA_Init() function.
  27:Drivers/STM32F1xx_HAL_Driver/Src/stm32f1xx_hal_dma.c **** 
  28:Drivers/STM32F1xx_HAL_Driver/Src/stm32f1xx_hal_dma.c ****    (#) Use HAL_DMA_GetState() function to return the DMA state and HAL_DMA_GetError() in case of er
  29:Drivers/STM32F1xx_HAL_Driver/Src/stm32f1xx_hal_dma.c ****        detection.
  30:Drivers/STM32F1xx_HAL_Driver/Src/stm32f1xx_hal_dma.c ****                     
  31:Drivers/STM32F1xx_HAL_Driver/Src/stm32f1xx_hal_dma.c ****    (#) Use HAL_DMA_Abort() function to abort the current transfer
  32:Drivers/STM32F1xx_HAL_Driver/Src/stm32f1xx_hal_dma.c ****                    
  33:Drivers/STM32F1xx_HAL_Driver/Src/stm32f1xx_hal_dma.c ****      -@-   In Memory-to-Memory transfer mode, Circular mode is not allowed.
  34:Drivers/STM32F1xx_HAL_Driver/Src/stm32f1xx_hal_dma.c ****      *** Polling mode IO operation ***
ARM GAS  /tmp/ccqJv02S.s 			page 2


  35:Drivers/STM32F1xx_HAL_Driver/Src/stm32f1xx_hal_dma.c ****      =================================
  36:Drivers/STM32F1xx_HAL_Driver/Src/stm32f1xx_hal_dma.c ****     [..]
  37:Drivers/STM32F1xx_HAL_Driver/Src/stm32f1xx_hal_dma.c ****           (+) Use HAL_DMA_Start() to start DMA transfer after the configuration of Source
  38:Drivers/STM32F1xx_HAL_Driver/Src/stm32f1xx_hal_dma.c ****               address and destination address and the Length of data to be transferred
  39:Drivers/STM32F1xx_HAL_Driver/Src/stm32f1xx_hal_dma.c ****           (+) Use HAL_DMA_PollForTransfer() to poll for the end of current transfer, in this
  40:Drivers/STM32F1xx_HAL_Driver/Src/stm32f1xx_hal_dma.c ****               case a fixed Timeout can be configured by User depending from his application.
  41:Drivers/STM32F1xx_HAL_Driver/Src/stm32f1xx_hal_dma.c **** 
  42:Drivers/STM32F1xx_HAL_Driver/Src/stm32f1xx_hal_dma.c ****      *** Interrupt mode IO operation ***
  43:Drivers/STM32F1xx_HAL_Driver/Src/stm32f1xx_hal_dma.c ****      ===================================
  44:Drivers/STM32F1xx_HAL_Driver/Src/stm32f1xx_hal_dma.c ****     [..]
  45:Drivers/STM32F1xx_HAL_Driver/Src/stm32f1xx_hal_dma.c ****           (+) Configure the DMA interrupt priority using HAL_NVIC_SetPriority()
  46:Drivers/STM32F1xx_HAL_Driver/Src/stm32f1xx_hal_dma.c ****           (+) Enable the DMA IRQ handler using HAL_NVIC_EnableIRQ()
  47:Drivers/STM32F1xx_HAL_Driver/Src/stm32f1xx_hal_dma.c ****           (+) Use HAL_DMA_Start_IT() to start DMA transfer after the configuration of
  48:Drivers/STM32F1xx_HAL_Driver/Src/stm32f1xx_hal_dma.c ****               Source address and destination address and the Length of data to be transferred.
  49:Drivers/STM32F1xx_HAL_Driver/Src/stm32f1xx_hal_dma.c ****               In this case the DMA interrupt is configured
  50:Drivers/STM32F1xx_HAL_Driver/Src/stm32f1xx_hal_dma.c ****           (+) Use HAL_DMA_IRQHandler() called under DMA_IRQHandler() Interrupt subroutine
  51:Drivers/STM32F1xx_HAL_Driver/Src/stm32f1xx_hal_dma.c ****           (+) At the end of data transfer HAL_DMA_IRQHandler() function is executed and user can
  52:Drivers/STM32F1xx_HAL_Driver/Src/stm32f1xx_hal_dma.c ****               add his own function by customization of function pointer XferCpltCallback and
  53:Drivers/STM32F1xx_HAL_Driver/Src/stm32f1xx_hal_dma.c ****               XferErrorCallback (i.e. a member of DMA handle structure).
  54:Drivers/STM32F1xx_HAL_Driver/Src/stm32f1xx_hal_dma.c **** 
  55:Drivers/STM32F1xx_HAL_Driver/Src/stm32f1xx_hal_dma.c ****      *** DMA HAL driver macros list ***
  56:Drivers/STM32F1xx_HAL_Driver/Src/stm32f1xx_hal_dma.c ****      ============================================= 
  57:Drivers/STM32F1xx_HAL_Driver/Src/stm32f1xx_hal_dma.c ****       [..]
  58:Drivers/STM32F1xx_HAL_Driver/Src/stm32f1xx_hal_dma.c ****        Below the list of most used macros in DMA HAL driver.
  59:Drivers/STM32F1xx_HAL_Driver/Src/stm32f1xx_hal_dma.c **** 
  60:Drivers/STM32F1xx_HAL_Driver/Src/stm32f1xx_hal_dma.c ****        (+) __HAL_DMA_ENABLE: Enable the specified DMA Channel.
  61:Drivers/STM32F1xx_HAL_Driver/Src/stm32f1xx_hal_dma.c ****        (+) __HAL_DMA_DISABLE: Disable the specified DMA Channel.
  62:Drivers/STM32F1xx_HAL_Driver/Src/stm32f1xx_hal_dma.c ****        (+) __HAL_DMA_GET_FLAG: Get the DMA Channel pending flags.
  63:Drivers/STM32F1xx_HAL_Driver/Src/stm32f1xx_hal_dma.c ****        (+) __HAL_DMA_CLEAR_FLAG: Clear the DMA Channel pending flags.
  64:Drivers/STM32F1xx_HAL_Driver/Src/stm32f1xx_hal_dma.c ****        (+) __HAL_DMA_ENABLE_IT: Enable the specified DMA Channel interrupts.
  65:Drivers/STM32F1xx_HAL_Driver/Src/stm32f1xx_hal_dma.c ****        (+) __HAL_DMA_DISABLE_IT: Disable the specified DMA Channel interrupts.
  66:Drivers/STM32F1xx_HAL_Driver/Src/stm32f1xx_hal_dma.c ****        (+) __HAL_DMA_GET_IT_SOURCE: Check whether the specified DMA Channel interrupt has occurred 
  67:Drivers/STM32F1xx_HAL_Driver/Src/stm32f1xx_hal_dma.c **** 
  68:Drivers/STM32F1xx_HAL_Driver/Src/stm32f1xx_hal_dma.c ****      [..] 
  69:Drivers/STM32F1xx_HAL_Driver/Src/stm32f1xx_hal_dma.c ****       (@) You can refer to the DMA HAL driver header file for more useful macros  
  70:Drivers/STM32F1xx_HAL_Driver/Src/stm32f1xx_hal_dma.c **** 
  71:Drivers/STM32F1xx_HAL_Driver/Src/stm32f1xx_hal_dma.c ****   @endverbatim
  72:Drivers/STM32F1xx_HAL_Driver/Src/stm32f1xx_hal_dma.c ****   ******************************************************************************
  73:Drivers/STM32F1xx_HAL_Driver/Src/stm32f1xx_hal_dma.c ****   * @attention
  74:Drivers/STM32F1xx_HAL_Driver/Src/stm32f1xx_hal_dma.c ****   *
  75:Drivers/STM32F1xx_HAL_Driver/Src/stm32f1xx_hal_dma.c ****   * <h2><center>&copy; COPYRIGHT(c) 2017 STMicroelectronics</center></h2>
  76:Drivers/STM32F1xx_HAL_Driver/Src/stm32f1xx_hal_dma.c ****   *
  77:Drivers/STM32F1xx_HAL_Driver/Src/stm32f1xx_hal_dma.c ****   * Redistribution and use in source and binary forms, with or without modification,
  78:Drivers/STM32F1xx_HAL_Driver/Src/stm32f1xx_hal_dma.c ****   * are permitted provided that the following conditions are met:
  79:Drivers/STM32F1xx_HAL_Driver/Src/stm32f1xx_hal_dma.c ****   *   1. Redistributions of source code must retain the above copyright notice,
  80:Drivers/STM32F1xx_HAL_Driver/Src/stm32f1xx_hal_dma.c ****   *      this list of conditions and the following disclaimer.
  81:Drivers/STM32F1xx_HAL_Driver/Src/stm32f1xx_hal_dma.c ****   *   2. Redistributions in binary form must reproduce the above copyright notice,
  82:Drivers/STM32F1xx_HAL_Driver/Src/stm32f1xx_hal_dma.c ****   *      this list of conditions and the following disclaimer in the documentation
  83:Drivers/STM32F1xx_HAL_Driver/Src/stm32f1xx_hal_dma.c ****   *      and/or other materials provided with the distribution.
  84:Drivers/STM32F1xx_HAL_Driver/Src/stm32f1xx_hal_dma.c ****   *   3. Neither the name of STMicroelectronics nor the names of its contributors
  85:Drivers/STM32F1xx_HAL_Driver/Src/stm32f1xx_hal_dma.c ****   *      may be used to endorse or promote products derived from this software
  86:Drivers/STM32F1xx_HAL_Driver/Src/stm32f1xx_hal_dma.c ****   *      without specific prior written permission.
  87:Drivers/STM32F1xx_HAL_Driver/Src/stm32f1xx_hal_dma.c ****   *
  88:Drivers/STM32F1xx_HAL_Driver/Src/stm32f1xx_hal_dma.c ****   * THIS SOFTWARE IS PROVIDED BY THE COPYRIGHT HOLDERS AND CONTRIBUTORS "AS IS"
  89:Drivers/STM32F1xx_HAL_Driver/Src/stm32f1xx_hal_dma.c ****   * AND ANY EXPRESS OR IMPLIED WARRANTIES, INCLUDING, BUT NOT LIMITED TO, THE
  90:Drivers/STM32F1xx_HAL_Driver/Src/stm32f1xx_hal_dma.c ****   * IMPLIED WARRANTIES OF MERCHANTABILITY AND FITNESS FOR A PARTICULAR PURPOSE ARE
  91:Drivers/STM32F1xx_HAL_Driver/Src/stm32f1xx_hal_dma.c ****   * DISCLAIMED. IN NO EVENT SHALL THE COPYRIGHT HOLDER OR CONTRIBUTORS BE LIABLE
ARM GAS  /tmp/ccqJv02S.s 			page 3


  92:Drivers/STM32F1xx_HAL_Driver/Src/stm32f1xx_hal_dma.c ****   * FOR ANY DIRECT, INDIRECT, INCIDENTAL, SPECIAL, EXEMPLARY, OR CONSEQUENTIAL
  93:Drivers/STM32F1xx_HAL_Driver/Src/stm32f1xx_hal_dma.c ****   * DAMAGES (INCLUDING, BUT NOT LIMITED TO, PROCUREMENT OF SUBSTITUTE GOODS OR
  94:Drivers/STM32F1xx_HAL_Driver/Src/stm32f1xx_hal_dma.c ****   * SERVICES; LOSS OF USE, DATA, OR PROFITS; OR BUSINESS INTERRUPTION) HOWEVER
  95:Drivers/STM32F1xx_HAL_Driver/Src/stm32f1xx_hal_dma.c ****   * CAUSED AND ON ANY THEORY OF LIABILITY, WHETHER IN CONTRACT, STRICT LIABILITY,
  96:Drivers/STM32F1xx_HAL_Driver/Src/stm32f1xx_hal_dma.c ****   * OR TORT (INCLUDING NEGLIGENCE OR OTHERWISE) ARISING IN ANY WAY OUT OF THE USE
  97:Drivers/STM32F1xx_HAL_Driver/Src/stm32f1xx_hal_dma.c ****   * OF THIS SOFTWARE, EVEN IF ADVISED OF THE POSSIBILITY OF SUCH DAMAGE.
  98:Drivers/STM32F1xx_HAL_Driver/Src/stm32f1xx_hal_dma.c ****   *
  99:Drivers/STM32F1xx_HAL_Driver/Src/stm32f1xx_hal_dma.c ****   ******************************************************************************
 100:Drivers/STM32F1xx_HAL_Driver/Src/stm32f1xx_hal_dma.c ****   */
 101:Drivers/STM32F1xx_HAL_Driver/Src/stm32f1xx_hal_dma.c **** 
 102:Drivers/STM32F1xx_HAL_Driver/Src/stm32f1xx_hal_dma.c **** /* Includes ------------------------------------------------------------------*/
 103:Drivers/STM32F1xx_HAL_Driver/Src/stm32f1xx_hal_dma.c **** #include "stm32f1xx_hal.h"
 104:Drivers/STM32F1xx_HAL_Driver/Src/stm32f1xx_hal_dma.c **** 
 105:Drivers/STM32F1xx_HAL_Driver/Src/stm32f1xx_hal_dma.c **** /** @addtogroup STM32F1xx_HAL_Driver
 106:Drivers/STM32F1xx_HAL_Driver/Src/stm32f1xx_hal_dma.c ****   * @{
 107:Drivers/STM32F1xx_HAL_Driver/Src/stm32f1xx_hal_dma.c ****   */
 108:Drivers/STM32F1xx_HAL_Driver/Src/stm32f1xx_hal_dma.c **** 
 109:Drivers/STM32F1xx_HAL_Driver/Src/stm32f1xx_hal_dma.c **** /** @defgroup DMA DMA
 110:Drivers/STM32F1xx_HAL_Driver/Src/stm32f1xx_hal_dma.c ****   * @brief DMA HAL module driver
 111:Drivers/STM32F1xx_HAL_Driver/Src/stm32f1xx_hal_dma.c ****   * @{
 112:Drivers/STM32F1xx_HAL_Driver/Src/stm32f1xx_hal_dma.c ****   */
 113:Drivers/STM32F1xx_HAL_Driver/Src/stm32f1xx_hal_dma.c **** 
 114:Drivers/STM32F1xx_HAL_Driver/Src/stm32f1xx_hal_dma.c **** #ifdef HAL_DMA_MODULE_ENABLED
 115:Drivers/STM32F1xx_HAL_Driver/Src/stm32f1xx_hal_dma.c **** 
 116:Drivers/STM32F1xx_HAL_Driver/Src/stm32f1xx_hal_dma.c **** /* Private typedef -----------------------------------------------------------*/
 117:Drivers/STM32F1xx_HAL_Driver/Src/stm32f1xx_hal_dma.c **** /* Private define ------------------------------------------------------------*/
 118:Drivers/STM32F1xx_HAL_Driver/Src/stm32f1xx_hal_dma.c **** /* Private macro -------------------------------------------------------------*/
 119:Drivers/STM32F1xx_HAL_Driver/Src/stm32f1xx_hal_dma.c **** /* Private variables ---------------------------------------------------------*/
 120:Drivers/STM32F1xx_HAL_Driver/Src/stm32f1xx_hal_dma.c **** /* Private function prototypes -----------------------------------------------*/
 121:Drivers/STM32F1xx_HAL_Driver/Src/stm32f1xx_hal_dma.c **** /** @defgroup DMA_Private_Functions DMA Private Functions
 122:Drivers/STM32F1xx_HAL_Driver/Src/stm32f1xx_hal_dma.c ****   * @{
 123:Drivers/STM32F1xx_HAL_Driver/Src/stm32f1xx_hal_dma.c ****   */
 124:Drivers/STM32F1xx_HAL_Driver/Src/stm32f1xx_hal_dma.c **** static void DMA_SetConfig(DMA_HandleTypeDef *hdma, uint32_t SrcAddress, uint32_t DstAddress, uint32
 125:Drivers/STM32F1xx_HAL_Driver/Src/stm32f1xx_hal_dma.c **** /**
 126:Drivers/STM32F1xx_HAL_Driver/Src/stm32f1xx_hal_dma.c ****   * @}
 127:Drivers/STM32F1xx_HAL_Driver/Src/stm32f1xx_hal_dma.c ****   */
 128:Drivers/STM32F1xx_HAL_Driver/Src/stm32f1xx_hal_dma.c **** 
 129:Drivers/STM32F1xx_HAL_Driver/Src/stm32f1xx_hal_dma.c **** /* Exported functions ---------------------------------------------------------*/
 130:Drivers/STM32F1xx_HAL_Driver/Src/stm32f1xx_hal_dma.c **** 
 131:Drivers/STM32F1xx_HAL_Driver/Src/stm32f1xx_hal_dma.c **** /** @defgroup DMA_Exported_Functions DMA Exported Functions
 132:Drivers/STM32F1xx_HAL_Driver/Src/stm32f1xx_hal_dma.c ****   * @{
 133:Drivers/STM32F1xx_HAL_Driver/Src/stm32f1xx_hal_dma.c ****   */
 134:Drivers/STM32F1xx_HAL_Driver/Src/stm32f1xx_hal_dma.c **** 
 135:Drivers/STM32F1xx_HAL_Driver/Src/stm32f1xx_hal_dma.c **** /** @defgroup DMA_Exported_Functions_Group1 Initialization and de-initialization functions
 136:Drivers/STM32F1xx_HAL_Driver/Src/stm32f1xx_hal_dma.c ****   *  @brief   Initialization and de-initialization functions 
 137:Drivers/STM32F1xx_HAL_Driver/Src/stm32f1xx_hal_dma.c ****   *
 138:Drivers/STM32F1xx_HAL_Driver/Src/stm32f1xx_hal_dma.c **** @verbatim
 139:Drivers/STM32F1xx_HAL_Driver/Src/stm32f1xx_hal_dma.c ****  ===============================================================================
 140:Drivers/STM32F1xx_HAL_Driver/Src/stm32f1xx_hal_dma.c ****              ##### Initialization and de-initialization functions  #####
 141:Drivers/STM32F1xx_HAL_Driver/Src/stm32f1xx_hal_dma.c ****  ===============================================================================
 142:Drivers/STM32F1xx_HAL_Driver/Src/stm32f1xx_hal_dma.c ****     [..]
 143:Drivers/STM32F1xx_HAL_Driver/Src/stm32f1xx_hal_dma.c ****     This section provides functions allowing to initialize the DMA Channel source
 144:Drivers/STM32F1xx_HAL_Driver/Src/stm32f1xx_hal_dma.c ****     and destination addresses, incrementation and data sizes, transfer direction, 
 145:Drivers/STM32F1xx_HAL_Driver/Src/stm32f1xx_hal_dma.c ****     circular/normal mode selection, memory-to-memory mode selection and Channel priority value.
 146:Drivers/STM32F1xx_HAL_Driver/Src/stm32f1xx_hal_dma.c ****     [..]
 147:Drivers/STM32F1xx_HAL_Driver/Src/stm32f1xx_hal_dma.c ****     The HAL_DMA_Init() function follows the DMA configuration procedures as described in
 148:Drivers/STM32F1xx_HAL_Driver/Src/stm32f1xx_hal_dma.c ****     reference manual.  
ARM GAS  /tmp/ccqJv02S.s 			page 4


 149:Drivers/STM32F1xx_HAL_Driver/Src/stm32f1xx_hal_dma.c **** 
 150:Drivers/STM32F1xx_HAL_Driver/Src/stm32f1xx_hal_dma.c **** @endverbatim
 151:Drivers/STM32F1xx_HAL_Driver/Src/stm32f1xx_hal_dma.c ****   * @{
 152:Drivers/STM32F1xx_HAL_Driver/Src/stm32f1xx_hal_dma.c ****   */
 153:Drivers/STM32F1xx_HAL_Driver/Src/stm32f1xx_hal_dma.c **** 
 154:Drivers/STM32F1xx_HAL_Driver/Src/stm32f1xx_hal_dma.c **** /**
 155:Drivers/STM32F1xx_HAL_Driver/Src/stm32f1xx_hal_dma.c ****   * @brief  Initialize the DMA according to the specified
 156:Drivers/STM32F1xx_HAL_Driver/Src/stm32f1xx_hal_dma.c ****   *         parameters in the DMA_InitTypeDef and initialize the associated handle.
 157:Drivers/STM32F1xx_HAL_Driver/Src/stm32f1xx_hal_dma.c ****   * @param  hdma: Pointer to a DMA_HandleTypeDef structure that contains
 158:Drivers/STM32F1xx_HAL_Driver/Src/stm32f1xx_hal_dma.c ****   *               the configuration information for the specified DMA Channel.
 159:Drivers/STM32F1xx_HAL_Driver/Src/stm32f1xx_hal_dma.c ****   * @retval HAL status
 160:Drivers/STM32F1xx_HAL_Driver/Src/stm32f1xx_hal_dma.c ****   */
 161:Drivers/STM32F1xx_HAL_Driver/Src/stm32f1xx_hal_dma.c **** HAL_StatusTypeDef HAL_DMA_Init(DMA_HandleTypeDef *hdma)
 162:Drivers/STM32F1xx_HAL_Driver/Src/stm32f1xx_hal_dma.c **** {
 163:Drivers/STM32F1xx_HAL_Driver/Src/stm32f1xx_hal_dma.c ****   uint32_t tmp = 0U;
 164:Drivers/STM32F1xx_HAL_Driver/Src/stm32f1xx_hal_dma.c **** 
 165:Drivers/STM32F1xx_HAL_Driver/Src/stm32f1xx_hal_dma.c ****   /* Check the DMA handle allocation */
 166:Drivers/STM32F1xx_HAL_Driver/Src/stm32f1xx_hal_dma.c ****   if(hdma == NULL)
 167:Drivers/STM32F1xx_HAL_Driver/Src/stm32f1xx_hal_dma.c ****   {
 168:Drivers/STM32F1xx_HAL_Driver/Src/stm32f1xx_hal_dma.c ****     return HAL_ERROR;
 169:Drivers/STM32F1xx_HAL_Driver/Src/stm32f1xx_hal_dma.c ****   }
 170:Drivers/STM32F1xx_HAL_Driver/Src/stm32f1xx_hal_dma.c **** 
 171:Drivers/STM32F1xx_HAL_Driver/Src/stm32f1xx_hal_dma.c ****   /* Check the parameters */
 172:Drivers/STM32F1xx_HAL_Driver/Src/stm32f1xx_hal_dma.c ****   assert_param(IS_DMA_ALL_INSTANCE(hdma->Instance));
 173:Drivers/STM32F1xx_HAL_Driver/Src/stm32f1xx_hal_dma.c ****   assert_param(IS_DMA_DIRECTION(hdma->Init.Direction));
 174:Drivers/STM32F1xx_HAL_Driver/Src/stm32f1xx_hal_dma.c ****   assert_param(IS_DMA_PERIPHERAL_INC_STATE(hdma->Init.PeriphInc));
 175:Drivers/STM32F1xx_HAL_Driver/Src/stm32f1xx_hal_dma.c ****   assert_param(IS_DMA_MEMORY_INC_STATE(hdma->Init.MemInc));
 176:Drivers/STM32F1xx_HAL_Driver/Src/stm32f1xx_hal_dma.c ****   assert_param(IS_DMA_PERIPHERAL_DATA_SIZE(hdma->Init.PeriphDataAlignment));
 177:Drivers/STM32F1xx_HAL_Driver/Src/stm32f1xx_hal_dma.c ****   assert_param(IS_DMA_MEMORY_DATA_SIZE(hdma->Init.MemDataAlignment));
 178:Drivers/STM32F1xx_HAL_Driver/Src/stm32f1xx_hal_dma.c ****   assert_param(IS_DMA_MODE(hdma->Init.Mode));
 179:Drivers/STM32F1xx_HAL_Driver/Src/stm32f1xx_hal_dma.c ****   assert_param(IS_DMA_PRIORITY(hdma->Init.Priority));
 180:Drivers/STM32F1xx_HAL_Driver/Src/stm32f1xx_hal_dma.c **** 
 181:Drivers/STM32F1xx_HAL_Driver/Src/stm32f1xx_hal_dma.c **** #if defined (STM32F101xE) || defined (STM32F101xG) || defined (STM32F103xE) || defined (STM32F103xG
 182:Drivers/STM32F1xx_HAL_Driver/Src/stm32f1xx_hal_dma.c ****   /* calculation of the channel index */
 183:Drivers/STM32F1xx_HAL_Driver/Src/stm32f1xx_hal_dma.c ****   if ((uint32_t)(hdma->Instance) < (uint32_t)(DMA2_Channel1))
 184:Drivers/STM32F1xx_HAL_Driver/Src/stm32f1xx_hal_dma.c ****   {
 185:Drivers/STM32F1xx_HAL_Driver/Src/stm32f1xx_hal_dma.c ****     /* DMA1 */
 186:Drivers/STM32F1xx_HAL_Driver/Src/stm32f1xx_hal_dma.c ****     hdma->ChannelIndex = (((uint32_t)hdma->Instance - (uint32_t)DMA1_Channel1) / ((uint32_t)DMA1_Ch
 187:Drivers/STM32F1xx_HAL_Driver/Src/stm32f1xx_hal_dma.c ****     hdma->DmaBaseAddress = DMA1;
 188:Drivers/STM32F1xx_HAL_Driver/Src/stm32f1xx_hal_dma.c ****   }
 189:Drivers/STM32F1xx_HAL_Driver/Src/stm32f1xx_hal_dma.c ****   else 
 190:Drivers/STM32F1xx_HAL_Driver/Src/stm32f1xx_hal_dma.c ****   {
 191:Drivers/STM32F1xx_HAL_Driver/Src/stm32f1xx_hal_dma.c ****     /* DMA2 */
 192:Drivers/STM32F1xx_HAL_Driver/Src/stm32f1xx_hal_dma.c ****     hdma->ChannelIndex = (((uint32_t)hdma->Instance - (uint32_t)DMA2_Channel1) / ((uint32_t)DMA2_Ch
 193:Drivers/STM32F1xx_HAL_Driver/Src/stm32f1xx_hal_dma.c ****     hdma->DmaBaseAddress = DMA2;
 194:Drivers/STM32F1xx_HAL_Driver/Src/stm32f1xx_hal_dma.c ****   }
 195:Drivers/STM32F1xx_HAL_Driver/Src/stm32f1xx_hal_dma.c **** #else
 196:Drivers/STM32F1xx_HAL_Driver/Src/stm32f1xx_hal_dma.c ****   /* DMA1 */
 197:Drivers/STM32F1xx_HAL_Driver/Src/stm32f1xx_hal_dma.c ****   hdma->ChannelIndex = (((uint32_t)hdma->Instance - (uint32_t)DMA1_Channel1) / ((uint32_t)DMA1_Chan
 198:Drivers/STM32F1xx_HAL_Driver/Src/stm32f1xx_hal_dma.c ****   hdma->DmaBaseAddress = DMA1;
 199:Drivers/STM32F1xx_HAL_Driver/Src/stm32f1xx_hal_dma.c **** #endif /* STM32F101xE || STM32F101xG || STM32F103xE || STM32F103xG || STM32F100xE || STM32F105xC ||
 200:Drivers/STM32F1xx_HAL_Driver/Src/stm32f1xx_hal_dma.c **** 
 201:Drivers/STM32F1xx_HAL_Driver/Src/stm32f1xx_hal_dma.c ****   /* Change DMA peripheral state */
 202:Drivers/STM32F1xx_HAL_Driver/Src/stm32f1xx_hal_dma.c ****   hdma->State = HAL_DMA_STATE_BUSY;
 203:Drivers/STM32F1xx_HAL_Driver/Src/stm32f1xx_hal_dma.c **** 
 204:Drivers/STM32F1xx_HAL_Driver/Src/stm32f1xx_hal_dma.c ****   /* Get the CR register value */
 205:Drivers/STM32F1xx_HAL_Driver/Src/stm32f1xx_hal_dma.c ****   tmp = hdma->Instance->CCR;
ARM GAS  /tmp/ccqJv02S.s 			page 5


 206:Drivers/STM32F1xx_HAL_Driver/Src/stm32f1xx_hal_dma.c **** 
 207:Drivers/STM32F1xx_HAL_Driver/Src/stm32f1xx_hal_dma.c ****   /* Clear PL, MSIZE, PSIZE, MINC, PINC, CIRC and DIR bits */
 208:Drivers/STM32F1xx_HAL_Driver/Src/stm32f1xx_hal_dma.c ****   tmp &= ((uint32_t)~(DMA_CCR_PL    | DMA_CCR_MSIZE  | DMA_CCR_PSIZE  | \
 209:Drivers/STM32F1xx_HAL_Driver/Src/stm32f1xx_hal_dma.c ****                       DMA_CCR_MINC  | DMA_CCR_PINC   | DMA_CCR_CIRC   | \
 210:Drivers/STM32F1xx_HAL_Driver/Src/stm32f1xx_hal_dma.c ****                       DMA_CCR_DIR));
 211:Drivers/STM32F1xx_HAL_Driver/Src/stm32f1xx_hal_dma.c **** 
 212:Drivers/STM32F1xx_HAL_Driver/Src/stm32f1xx_hal_dma.c ****   /* Prepare the DMA Channel configuration */
 213:Drivers/STM32F1xx_HAL_Driver/Src/stm32f1xx_hal_dma.c ****   tmp |=  hdma->Init.Direction        |
 214:Drivers/STM32F1xx_HAL_Driver/Src/stm32f1xx_hal_dma.c ****           hdma->Init.PeriphInc           | hdma->Init.MemInc           |
 215:Drivers/STM32F1xx_HAL_Driver/Src/stm32f1xx_hal_dma.c ****           hdma->Init.PeriphDataAlignment | hdma->Init.MemDataAlignment |
 216:Drivers/STM32F1xx_HAL_Driver/Src/stm32f1xx_hal_dma.c ****           hdma->Init.Mode                | hdma->Init.Priority;
 217:Drivers/STM32F1xx_HAL_Driver/Src/stm32f1xx_hal_dma.c **** 
 218:Drivers/STM32F1xx_HAL_Driver/Src/stm32f1xx_hal_dma.c ****   /* Write to DMA Channel CR register */
 219:Drivers/STM32F1xx_HAL_Driver/Src/stm32f1xx_hal_dma.c ****   hdma->Instance->CCR = tmp;
 220:Drivers/STM32F1xx_HAL_Driver/Src/stm32f1xx_hal_dma.c **** 
 221:Drivers/STM32F1xx_HAL_Driver/Src/stm32f1xx_hal_dma.c **** 
 222:Drivers/STM32F1xx_HAL_Driver/Src/stm32f1xx_hal_dma.c ****   /* Clean callbacks */
 223:Drivers/STM32F1xx_HAL_Driver/Src/stm32f1xx_hal_dma.c ****   hdma->XferCpltCallback = NULL;
 224:Drivers/STM32F1xx_HAL_Driver/Src/stm32f1xx_hal_dma.c ****   hdma->XferHalfCpltCallback = NULL;
 225:Drivers/STM32F1xx_HAL_Driver/Src/stm32f1xx_hal_dma.c ****   hdma->XferErrorCallback = NULL;
 226:Drivers/STM32F1xx_HAL_Driver/Src/stm32f1xx_hal_dma.c ****   hdma->XferAbortCallback = NULL;
 227:Drivers/STM32F1xx_HAL_Driver/Src/stm32f1xx_hal_dma.c **** 
 228:Drivers/STM32F1xx_HAL_Driver/Src/stm32f1xx_hal_dma.c ****   /* Initialise the error code */
 229:Drivers/STM32F1xx_HAL_Driver/Src/stm32f1xx_hal_dma.c ****   hdma->ErrorCode = HAL_DMA_ERROR_NONE;
 230:Drivers/STM32F1xx_HAL_Driver/Src/stm32f1xx_hal_dma.c **** 
 231:Drivers/STM32F1xx_HAL_Driver/Src/stm32f1xx_hal_dma.c ****   /* Initialize the DMA state*/
 232:Drivers/STM32F1xx_HAL_Driver/Src/stm32f1xx_hal_dma.c ****   hdma->State = HAL_DMA_STATE_READY;
 233:Drivers/STM32F1xx_HAL_Driver/Src/stm32f1xx_hal_dma.c ****   /* Allocate lock resource and initialize it */
 234:Drivers/STM32F1xx_HAL_Driver/Src/stm32f1xx_hal_dma.c ****   hdma->Lock = HAL_UNLOCKED;
 235:Drivers/STM32F1xx_HAL_Driver/Src/stm32f1xx_hal_dma.c ****   
 236:Drivers/STM32F1xx_HAL_Driver/Src/stm32f1xx_hal_dma.c ****   return HAL_OK;
 237:Drivers/STM32F1xx_HAL_Driver/Src/stm32f1xx_hal_dma.c **** }
 238:Drivers/STM32F1xx_HAL_Driver/Src/stm32f1xx_hal_dma.c **** 
 239:Drivers/STM32F1xx_HAL_Driver/Src/stm32f1xx_hal_dma.c **** /**
 240:Drivers/STM32F1xx_HAL_Driver/Src/stm32f1xx_hal_dma.c ****   * @brief  DeInitialize the DMA peripheral.
 241:Drivers/STM32F1xx_HAL_Driver/Src/stm32f1xx_hal_dma.c ****   * @param  hdma: pointer to a DMA_HandleTypeDef structure that contains
 242:Drivers/STM32F1xx_HAL_Driver/Src/stm32f1xx_hal_dma.c ****   *               the configuration information for the specified DMA Channel.
 243:Drivers/STM32F1xx_HAL_Driver/Src/stm32f1xx_hal_dma.c ****   * @retval HAL status
 244:Drivers/STM32F1xx_HAL_Driver/Src/stm32f1xx_hal_dma.c ****   */
 245:Drivers/STM32F1xx_HAL_Driver/Src/stm32f1xx_hal_dma.c **** HAL_StatusTypeDef HAL_DMA_DeInit(DMA_HandleTypeDef *hdma)
 246:Drivers/STM32F1xx_HAL_Driver/Src/stm32f1xx_hal_dma.c **** {
 247:Drivers/STM32F1xx_HAL_Driver/Src/stm32f1xx_hal_dma.c ****   /* Check the DMA handle allocation */
 248:Drivers/STM32F1xx_HAL_Driver/Src/stm32f1xx_hal_dma.c ****   if(hdma == NULL)
 249:Drivers/STM32F1xx_HAL_Driver/Src/stm32f1xx_hal_dma.c ****   {
 250:Drivers/STM32F1xx_HAL_Driver/Src/stm32f1xx_hal_dma.c ****     return HAL_ERROR;
 251:Drivers/STM32F1xx_HAL_Driver/Src/stm32f1xx_hal_dma.c ****   }
 252:Drivers/STM32F1xx_HAL_Driver/Src/stm32f1xx_hal_dma.c **** 
 253:Drivers/STM32F1xx_HAL_Driver/Src/stm32f1xx_hal_dma.c ****   /* Check the parameters */
 254:Drivers/STM32F1xx_HAL_Driver/Src/stm32f1xx_hal_dma.c ****   assert_param(IS_DMA_ALL_INSTANCE(hdma->Instance));
 255:Drivers/STM32F1xx_HAL_Driver/Src/stm32f1xx_hal_dma.c **** 
 256:Drivers/STM32F1xx_HAL_Driver/Src/stm32f1xx_hal_dma.c ****   /* Disable the selected DMA Channelx */
 257:Drivers/STM32F1xx_HAL_Driver/Src/stm32f1xx_hal_dma.c ****   __HAL_DMA_DISABLE(hdma);
 258:Drivers/STM32F1xx_HAL_Driver/Src/stm32f1xx_hal_dma.c **** 
 259:Drivers/STM32F1xx_HAL_Driver/Src/stm32f1xx_hal_dma.c ****   /* Reset DMA Channel control register */
 260:Drivers/STM32F1xx_HAL_Driver/Src/stm32f1xx_hal_dma.c ****   hdma->Instance->CCR  = 0U;
 261:Drivers/STM32F1xx_HAL_Driver/Src/stm32f1xx_hal_dma.c **** 
 262:Drivers/STM32F1xx_HAL_Driver/Src/stm32f1xx_hal_dma.c ****   /* Reset DMA Channel Number of Data to Transfer register */
ARM GAS  /tmp/ccqJv02S.s 			page 6


 263:Drivers/STM32F1xx_HAL_Driver/Src/stm32f1xx_hal_dma.c ****   hdma->Instance->CNDTR = 0U;
 264:Drivers/STM32F1xx_HAL_Driver/Src/stm32f1xx_hal_dma.c **** 
 265:Drivers/STM32F1xx_HAL_Driver/Src/stm32f1xx_hal_dma.c ****   /* Reset DMA Channel peripheral address register */
 266:Drivers/STM32F1xx_HAL_Driver/Src/stm32f1xx_hal_dma.c ****   hdma->Instance->CPAR  = 0U;
 267:Drivers/STM32F1xx_HAL_Driver/Src/stm32f1xx_hal_dma.c **** 
 268:Drivers/STM32F1xx_HAL_Driver/Src/stm32f1xx_hal_dma.c ****   /* Reset DMA Channel memory address register */
 269:Drivers/STM32F1xx_HAL_Driver/Src/stm32f1xx_hal_dma.c ****   hdma->Instance->CMAR = 0U;
 270:Drivers/STM32F1xx_HAL_Driver/Src/stm32f1xx_hal_dma.c **** 
 271:Drivers/STM32F1xx_HAL_Driver/Src/stm32f1xx_hal_dma.c **** #if defined (STM32F101xE) || defined (STM32F101xG) || defined (STM32F103xE) || defined (STM32F103xG
 272:Drivers/STM32F1xx_HAL_Driver/Src/stm32f1xx_hal_dma.c ****   /* calculation of the channel index */
 273:Drivers/STM32F1xx_HAL_Driver/Src/stm32f1xx_hal_dma.c ****   if ((uint32_t)(hdma->Instance) < (uint32_t)(DMA2_Channel1))
 274:Drivers/STM32F1xx_HAL_Driver/Src/stm32f1xx_hal_dma.c ****   {
 275:Drivers/STM32F1xx_HAL_Driver/Src/stm32f1xx_hal_dma.c ****     /* DMA1 */
 276:Drivers/STM32F1xx_HAL_Driver/Src/stm32f1xx_hal_dma.c ****     hdma->ChannelIndex = (((uint32_t)hdma->Instance - (uint32_t)DMA1_Channel1) / ((uint32_t)DMA1_Ch
 277:Drivers/STM32F1xx_HAL_Driver/Src/stm32f1xx_hal_dma.c ****     hdma->DmaBaseAddress = DMA1;
 278:Drivers/STM32F1xx_HAL_Driver/Src/stm32f1xx_hal_dma.c ****   }
 279:Drivers/STM32F1xx_HAL_Driver/Src/stm32f1xx_hal_dma.c ****   else 
 280:Drivers/STM32F1xx_HAL_Driver/Src/stm32f1xx_hal_dma.c ****   {
 281:Drivers/STM32F1xx_HAL_Driver/Src/stm32f1xx_hal_dma.c ****     /* DMA2 */
 282:Drivers/STM32F1xx_HAL_Driver/Src/stm32f1xx_hal_dma.c ****     hdma->ChannelIndex = (((uint32_t)hdma->Instance - (uint32_t)DMA2_Channel1) / ((uint32_t)DMA2_Ch
 283:Drivers/STM32F1xx_HAL_Driver/Src/stm32f1xx_hal_dma.c ****     hdma->DmaBaseAddress = DMA2;
 284:Drivers/STM32F1xx_HAL_Driver/Src/stm32f1xx_hal_dma.c ****   }
 285:Drivers/STM32F1xx_HAL_Driver/Src/stm32f1xx_hal_dma.c **** #else
 286:Drivers/STM32F1xx_HAL_Driver/Src/stm32f1xx_hal_dma.c ****   /* DMA1 */
 287:Drivers/STM32F1xx_HAL_Driver/Src/stm32f1xx_hal_dma.c ****   hdma->ChannelIndex = (((uint32_t)hdma->Instance - (uint32_t)DMA1_Channel1) / ((uint32_t)DMA1_Chan
 288:Drivers/STM32F1xx_HAL_Driver/Src/stm32f1xx_hal_dma.c ****   hdma->DmaBaseAddress = DMA1;
 289:Drivers/STM32F1xx_HAL_Driver/Src/stm32f1xx_hal_dma.c **** #endif /* STM32F101xE || STM32F101xG || STM32F103xE || STM32F103xG || STM32F100xE || STM32F105xC ||
 290:Drivers/STM32F1xx_HAL_Driver/Src/stm32f1xx_hal_dma.c **** 
 291:Drivers/STM32F1xx_HAL_Driver/Src/stm32f1xx_hal_dma.c ****   /* Clear all flags */
 292:Drivers/STM32F1xx_HAL_Driver/Src/stm32f1xx_hal_dma.c ****   hdma->DmaBaseAddress->IFCR = (DMA_ISR_GIF1 << (hdma->ChannelIndex));
 293:Drivers/STM32F1xx_HAL_Driver/Src/stm32f1xx_hal_dma.c **** 
 294:Drivers/STM32F1xx_HAL_Driver/Src/stm32f1xx_hal_dma.c ****   /* Initialize the error code */
 295:Drivers/STM32F1xx_HAL_Driver/Src/stm32f1xx_hal_dma.c ****   hdma->ErrorCode = HAL_DMA_ERROR_NONE;
 296:Drivers/STM32F1xx_HAL_Driver/Src/stm32f1xx_hal_dma.c **** 
 297:Drivers/STM32F1xx_HAL_Driver/Src/stm32f1xx_hal_dma.c ****   /* Initialize the DMA state */
 298:Drivers/STM32F1xx_HAL_Driver/Src/stm32f1xx_hal_dma.c ****   hdma->State = HAL_DMA_STATE_RESET;
 299:Drivers/STM32F1xx_HAL_Driver/Src/stm32f1xx_hal_dma.c **** 
 300:Drivers/STM32F1xx_HAL_Driver/Src/stm32f1xx_hal_dma.c ****   /* Release Lock */
 301:Drivers/STM32F1xx_HAL_Driver/Src/stm32f1xx_hal_dma.c ****   __HAL_UNLOCK(hdma);
 302:Drivers/STM32F1xx_HAL_Driver/Src/stm32f1xx_hal_dma.c **** 
 303:Drivers/STM32F1xx_HAL_Driver/Src/stm32f1xx_hal_dma.c ****   return HAL_OK;
 304:Drivers/STM32F1xx_HAL_Driver/Src/stm32f1xx_hal_dma.c **** }
 305:Drivers/STM32F1xx_HAL_Driver/Src/stm32f1xx_hal_dma.c **** 
 306:Drivers/STM32F1xx_HAL_Driver/Src/stm32f1xx_hal_dma.c **** /**
 307:Drivers/STM32F1xx_HAL_Driver/Src/stm32f1xx_hal_dma.c ****   * @}
 308:Drivers/STM32F1xx_HAL_Driver/Src/stm32f1xx_hal_dma.c ****   */
 309:Drivers/STM32F1xx_HAL_Driver/Src/stm32f1xx_hal_dma.c **** 
 310:Drivers/STM32F1xx_HAL_Driver/Src/stm32f1xx_hal_dma.c **** /** @defgroup DMA_Exported_Functions_Group2 Input and Output operation functions
 311:Drivers/STM32F1xx_HAL_Driver/Src/stm32f1xx_hal_dma.c ****   *  @brief   Input and Output operation functions
 312:Drivers/STM32F1xx_HAL_Driver/Src/stm32f1xx_hal_dma.c ****   *
 313:Drivers/STM32F1xx_HAL_Driver/Src/stm32f1xx_hal_dma.c **** @verbatim
 314:Drivers/STM32F1xx_HAL_Driver/Src/stm32f1xx_hal_dma.c ****  ===============================================================================
 315:Drivers/STM32F1xx_HAL_Driver/Src/stm32f1xx_hal_dma.c ****                       #####  IO operation functions  #####
 316:Drivers/STM32F1xx_HAL_Driver/Src/stm32f1xx_hal_dma.c ****  ===============================================================================
 317:Drivers/STM32F1xx_HAL_Driver/Src/stm32f1xx_hal_dma.c ****     [..]  This section provides functions allowing to:
 318:Drivers/STM32F1xx_HAL_Driver/Src/stm32f1xx_hal_dma.c ****       (+) Configure the source, destination address and data length and Start DMA transfer
 319:Drivers/STM32F1xx_HAL_Driver/Src/stm32f1xx_hal_dma.c ****       (+) Configure the source, destination address and data length and
ARM GAS  /tmp/ccqJv02S.s 			page 7


 320:Drivers/STM32F1xx_HAL_Driver/Src/stm32f1xx_hal_dma.c ****           Start DMA transfer with interrupt
 321:Drivers/STM32F1xx_HAL_Driver/Src/stm32f1xx_hal_dma.c ****       (+) Abort DMA transfer
 322:Drivers/STM32F1xx_HAL_Driver/Src/stm32f1xx_hal_dma.c ****       (+) Poll for transfer complete
 323:Drivers/STM32F1xx_HAL_Driver/Src/stm32f1xx_hal_dma.c ****       (+) Handle DMA interrupt request
 324:Drivers/STM32F1xx_HAL_Driver/Src/stm32f1xx_hal_dma.c **** 
 325:Drivers/STM32F1xx_HAL_Driver/Src/stm32f1xx_hal_dma.c **** @endverbatim
 326:Drivers/STM32F1xx_HAL_Driver/Src/stm32f1xx_hal_dma.c ****   * @{
 327:Drivers/STM32F1xx_HAL_Driver/Src/stm32f1xx_hal_dma.c ****   */
 328:Drivers/STM32F1xx_HAL_Driver/Src/stm32f1xx_hal_dma.c **** 
 329:Drivers/STM32F1xx_HAL_Driver/Src/stm32f1xx_hal_dma.c **** /**
 330:Drivers/STM32F1xx_HAL_Driver/Src/stm32f1xx_hal_dma.c ****   * @brief  Start the DMA Transfer.
 331:Drivers/STM32F1xx_HAL_Driver/Src/stm32f1xx_hal_dma.c ****   * @param  hdma: pointer to a DMA_HandleTypeDef structure that contains
 332:Drivers/STM32F1xx_HAL_Driver/Src/stm32f1xx_hal_dma.c ****   *               the configuration information for the specified DMA Channel.
 333:Drivers/STM32F1xx_HAL_Driver/Src/stm32f1xx_hal_dma.c ****   * @param  SrcAddress: The source memory Buffer address
 334:Drivers/STM32F1xx_HAL_Driver/Src/stm32f1xx_hal_dma.c ****   * @param  DstAddress: The destination memory Buffer address
 335:Drivers/STM32F1xx_HAL_Driver/Src/stm32f1xx_hal_dma.c ****   * @param  DataLength: The length of data to be transferred from source to destination
 336:Drivers/STM32F1xx_HAL_Driver/Src/stm32f1xx_hal_dma.c ****   * @retval HAL status
 337:Drivers/STM32F1xx_HAL_Driver/Src/stm32f1xx_hal_dma.c ****   */
 338:Drivers/STM32F1xx_HAL_Driver/Src/stm32f1xx_hal_dma.c **** HAL_StatusTypeDef HAL_DMA_Start(DMA_HandleTypeDef *hdma, uint32_t SrcAddress, uint32_t DstAddress, 
 339:Drivers/STM32F1xx_HAL_Driver/Src/stm32f1xx_hal_dma.c **** {
 340:Drivers/STM32F1xx_HAL_Driver/Src/stm32f1xx_hal_dma.c ****   HAL_StatusTypeDef status = HAL_OK;
 341:Drivers/STM32F1xx_HAL_Driver/Src/stm32f1xx_hal_dma.c **** 
 342:Drivers/STM32F1xx_HAL_Driver/Src/stm32f1xx_hal_dma.c ****   /* Check the parameters */
 343:Drivers/STM32F1xx_HAL_Driver/Src/stm32f1xx_hal_dma.c ****   assert_param(IS_DMA_BUFFER_SIZE(DataLength));
 344:Drivers/STM32F1xx_HAL_Driver/Src/stm32f1xx_hal_dma.c **** 
 345:Drivers/STM32F1xx_HAL_Driver/Src/stm32f1xx_hal_dma.c ****   /* Process locked */
 346:Drivers/STM32F1xx_HAL_Driver/Src/stm32f1xx_hal_dma.c ****   __HAL_LOCK(hdma);
 347:Drivers/STM32F1xx_HAL_Driver/Src/stm32f1xx_hal_dma.c **** 
 348:Drivers/STM32F1xx_HAL_Driver/Src/stm32f1xx_hal_dma.c ****   if(HAL_DMA_STATE_READY == hdma->State)
 349:Drivers/STM32F1xx_HAL_Driver/Src/stm32f1xx_hal_dma.c ****   {
 350:Drivers/STM32F1xx_HAL_Driver/Src/stm32f1xx_hal_dma.c ****     /* Change DMA peripheral state */
 351:Drivers/STM32F1xx_HAL_Driver/Src/stm32f1xx_hal_dma.c ****     hdma->State = HAL_DMA_STATE_BUSY;
 352:Drivers/STM32F1xx_HAL_Driver/Src/stm32f1xx_hal_dma.c ****     hdma->ErrorCode = HAL_DMA_ERROR_NONE;
 353:Drivers/STM32F1xx_HAL_Driver/Src/stm32f1xx_hal_dma.c ****             
 354:Drivers/STM32F1xx_HAL_Driver/Src/stm32f1xx_hal_dma.c ****     /* Disable the peripheral */
 355:Drivers/STM32F1xx_HAL_Driver/Src/stm32f1xx_hal_dma.c ****     __HAL_DMA_DISABLE(hdma);
 356:Drivers/STM32F1xx_HAL_Driver/Src/stm32f1xx_hal_dma.c ****     
 357:Drivers/STM32F1xx_HAL_Driver/Src/stm32f1xx_hal_dma.c ****     /* Configure the source, destination address and the data length & clear flags*/
 358:Drivers/STM32F1xx_HAL_Driver/Src/stm32f1xx_hal_dma.c ****     DMA_SetConfig(hdma, SrcAddress, DstAddress, DataLength);
 359:Drivers/STM32F1xx_HAL_Driver/Src/stm32f1xx_hal_dma.c ****     
 360:Drivers/STM32F1xx_HAL_Driver/Src/stm32f1xx_hal_dma.c ****     /* Enable the Peripheral */
 361:Drivers/STM32F1xx_HAL_Driver/Src/stm32f1xx_hal_dma.c ****     __HAL_DMA_ENABLE(hdma);
 362:Drivers/STM32F1xx_HAL_Driver/Src/stm32f1xx_hal_dma.c ****   }
 363:Drivers/STM32F1xx_HAL_Driver/Src/stm32f1xx_hal_dma.c ****   else
 364:Drivers/STM32F1xx_HAL_Driver/Src/stm32f1xx_hal_dma.c ****   {
 365:Drivers/STM32F1xx_HAL_Driver/Src/stm32f1xx_hal_dma.c ****    /* Process Unlocked */
 366:Drivers/STM32F1xx_HAL_Driver/Src/stm32f1xx_hal_dma.c ****    __HAL_UNLOCK(hdma);  
 367:Drivers/STM32F1xx_HAL_Driver/Src/stm32f1xx_hal_dma.c ****    status = HAL_BUSY;
 368:Drivers/STM32F1xx_HAL_Driver/Src/stm32f1xx_hal_dma.c ****   }  
 369:Drivers/STM32F1xx_HAL_Driver/Src/stm32f1xx_hal_dma.c ****   return status;
 370:Drivers/STM32F1xx_HAL_Driver/Src/stm32f1xx_hal_dma.c **** }
 371:Drivers/STM32F1xx_HAL_Driver/Src/stm32f1xx_hal_dma.c **** 
 372:Drivers/STM32F1xx_HAL_Driver/Src/stm32f1xx_hal_dma.c **** /**
 373:Drivers/STM32F1xx_HAL_Driver/Src/stm32f1xx_hal_dma.c ****   * @brief  Start the DMA Transfer with interrupt enabled.
 374:Drivers/STM32F1xx_HAL_Driver/Src/stm32f1xx_hal_dma.c ****   * @param  hdma: pointer to a DMA_HandleTypeDef structure that contains
 375:Drivers/STM32F1xx_HAL_Driver/Src/stm32f1xx_hal_dma.c ****   *               the configuration information for the specified DMA Channel.
 376:Drivers/STM32F1xx_HAL_Driver/Src/stm32f1xx_hal_dma.c ****   * @param  SrcAddress: The source memory Buffer address
ARM GAS  /tmp/ccqJv02S.s 			page 8


 377:Drivers/STM32F1xx_HAL_Driver/Src/stm32f1xx_hal_dma.c ****   * @param  DstAddress: The destination memory Buffer address
 378:Drivers/STM32F1xx_HAL_Driver/Src/stm32f1xx_hal_dma.c ****   * @param  DataLength: The length of data to be transferred from source to destination
 379:Drivers/STM32F1xx_HAL_Driver/Src/stm32f1xx_hal_dma.c ****   * @retval HAL status
 380:Drivers/STM32F1xx_HAL_Driver/Src/stm32f1xx_hal_dma.c ****   */
 381:Drivers/STM32F1xx_HAL_Driver/Src/stm32f1xx_hal_dma.c **** HAL_StatusTypeDef HAL_DMA_Start_IT(DMA_HandleTypeDef *hdma, uint32_t SrcAddress, uint32_t DstAddres
 382:Drivers/STM32F1xx_HAL_Driver/Src/stm32f1xx_hal_dma.c **** {
 383:Drivers/STM32F1xx_HAL_Driver/Src/stm32f1xx_hal_dma.c ****   HAL_StatusTypeDef status = HAL_OK;
 384:Drivers/STM32F1xx_HAL_Driver/Src/stm32f1xx_hal_dma.c **** 
 385:Drivers/STM32F1xx_HAL_Driver/Src/stm32f1xx_hal_dma.c ****   /* Check the parameters */
 386:Drivers/STM32F1xx_HAL_Driver/Src/stm32f1xx_hal_dma.c ****   assert_param(IS_DMA_BUFFER_SIZE(DataLength));
 387:Drivers/STM32F1xx_HAL_Driver/Src/stm32f1xx_hal_dma.c **** 
 388:Drivers/STM32F1xx_HAL_Driver/Src/stm32f1xx_hal_dma.c ****   /* Process locked */
 389:Drivers/STM32F1xx_HAL_Driver/Src/stm32f1xx_hal_dma.c ****   __HAL_LOCK(hdma);
 390:Drivers/STM32F1xx_HAL_Driver/Src/stm32f1xx_hal_dma.c ****   
 391:Drivers/STM32F1xx_HAL_Driver/Src/stm32f1xx_hal_dma.c ****   if(HAL_DMA_STATE_READY == hdma->State)
 392:Drivers/STM32F1xx_HAL_Driver/Src/stm32f1xx_hal_dma.c ****   {
 393:Drivers/STM32F1xx_HAL_Driver/Src/stm32f1xx_hal_dma.c ****     /* Change DMA peripheral state */
 394:Drivers/STM32F1xx_HAL_Driver/Src/stm32f1xx_hal_dma.c ****     hdma->State = HAL_DMA_STATE_BUSY;
 395:Drivers/STM32F1xx_HAL_Driver/Src/stm32f1xx_hal_dma.c ****     hdma->ErrorCode = HAL_DMA_ERROR_NONE;
 396:Drivers/STM32F1xx_HAL_Driver/Src/stm32f1xx_hal_dma.c ****     
 397:Drivers/STM32F1xx_HAL_Driver/Src/stm32f1xx_hal_dma.c ****     /* Disable the peripheral */
 398:Drivers/STM32F1xx_HAL_Driver/Src/stm32f1xx_hal_dma.c ****     __HAL_DMA_DISABLE(hdma);
 399:Drivers/STM32F1xx_HAL_Driver/Src/stm32f1xx_hal_dma.c ****     
 400:Drivers/STM32F1xx_HAL_Driver/Src/stm32f1xx_hal_dma.c ****     /* Configure the source, destination address and the data length & clear flags*/
 401:Drivers/STM32F1xx_HAL_Driver/Src/stm32f1xx_hal_dma.c ****     DMA_SetConfig(hdma, SrcAddress, DstAddress, DataLength);
 402:Drivers/STM32F1xx_HAL_Driver/Src/stm32f1xx_hal_dma.c ****     
 403:Drivers/STM32F1xx_HAL_Driver/Src/stm32f1xx_hal_dma.c ****     /* Enable the transfer complete interrupt */
 404:Drivers/STM32F1xx_HAL_Driver/Src/stm32f1xx_hal_dma.c ****     /* Enable the transfer Error interrupt */
 405:Drivers/STM32F1xx_HAL_Driver/Src/stm32f1xx_hal_dma.c ****     if(NULL != hdma->XferHalfCpltCallback)
 406:Drivers/STM32F1xx_HAL_Driver/Src/stm32f1xx_hal_dma.c ****     {
 407:Drivers/STM32F1xx_HAL_Driver/Src/stm32f1xx_hal_dma.c ****       /* Enable the Half transfer complete interrupt as well */
 408:Drivers/STM32F1xx_HAL_Driver/Src/stm32f1xx_hal_dma.c ****       __HAL_DMA_ENABLE_IT(hdma, (DMA_IT_TC | DMA_IT_HT | DMA_IT_TE));
 409:Drivers/STM32F1xx_HAL_Driver/Src/stm32f1xx_hal_dma.c ****     }
 410:Drivers/STM32F1xx_HAL_Driver/Src/stm32f1xx_hal_dma.c ****     else
 411:Drivers/STM32F1xx_HAL_Driver/Src/stm32f1xx_hal_dma.c ****     {
 412:Drivers/STM32F1xx_HAL_Driver/Src/stm32f1xx_hal_dma.c ****       __HAL_DMA_DISABLE_IT(hdma, DMA_IT_HT);
 413:Drivers/STM32F1xx_HAL_Driver/Src/stm32f1xx_hal_dma.c ****       __HAL_DMA_ENABLE_IT(hdma, (DMA_IT_TC | DMA_IT_TE));
 414:Drivers/STM32F1xx_HAL_Driver/Src/stm32f1xx_hal_dma.c ****     }
 415:Drivers/STM32F1xx_HAL_Driver/Src/stm32f1xx_hal_dma.c ****     /* Enable the Peripheral */
 416:Drivers/STM32F1xx_HAL_Driver/Src/stm32f1xx_hal_dma.c ****     __HAL_DMA_ENABLE(hdma);
 417:Drivers/STM32F1xx_HAL_Driver/Src/stm32f1xx_hal_dma.c ****   }
 418:Drivers/STM32F1xx_HAL_Driver/Src/stm32f1xx_hal_dma.c ****   else
 419:Drivers/STM32F1xx_HAL_Driver/Src/stm32f1xx_hal_dma.c ****   {      
 420:Drivers/STM32F1xx_HAL_Driver/Src/stm32f1xx_hal_dma.c ****     /* Process Unlocked */
 421:Drivers/STM32F1xx_HAL_Driver/Src/stm32f1xx_hal_dma.c ****     __HAL_UNLOCK(hdma); 
 422:Drivers/STM32F1xx_HAL_Driver/Src/stm32f1xx_hal_dma.c **** 
 423:Drivers/STM32F1xx_HAL_Driver/Src/stm32f1xx_hal_dma.c ****     /* Remain BUSY */
 424:Drivers/STM32F1xx_HAL_Driver/Src/stm32f1xx_hal_dma.c ****     status = HAL_BUSY;
 425:Drivers/STM32F1xx_HAL_Driver/Src/stm32f1xx_hal_dma.c ****   }    
 426:Drivers/STM32F1xx_HAL_Driver/Src/stm32f1xx_hal_dma.c ****   return status;
 427:Drivers/STM32F1xx_HAL_Driver/Src/stm32f1xx_hal_dma.c **** }
 428:Drivers/STM32F1xx_HAL_Driver/Src/stm32f1xx_hal_dma.c **** 
 429:Drivers/STM32F1xx_HAL_Driver/Src/stm32f1xx_hal_dma.c **** /**
 430:Drivers/STM32F1xx_HAL_Driver/Src/stm32f1xx_hal_dma.c ****   * @brief  Abort the DMA Transfer.
 431:Drivers/STM32F1xx_HAL_Driver/Src/stm32f1xx_hal_dma.c ****   * @param  hdma: pointer to a DMA_HandleTypeDef structure that contains
 432:Drivers/STM32F1xx_HAL_Driver/Src/stm32f1xx_hal_dma.c ****   *               the configuration information for the specified DMA Channel.
 433:Drivers/STM32F1xx_HAL_Driver/Src/stm32f1xx_hal_dma.c ****   * @retval HAL status
ARM GAS  /tmp/ccqJv02S.s 			page 9


 434:Drivers/STM32F1xx_HAL_Driver/Src/stm32f1xx_hal_dma.c ****   */
 435:Drivers/STM32F1xx_HAL_Driver/Src/stm32f1xx_hal_dma.c **** HAL_StatusTypeDef HAL_DMA_Abort(DMA_HandleTypeDef *hdma)
 436:Drivers/STM32F1xx_HAL_Driver/Src/stm32f1xx_hal_dma.c **** {
 437:Drivers/STM32F1xx_HAL_Driver/Src/stm32f1xx_hal_dma.c ****   HAL_StatusTypeDef status = HAL_OK;
 438:Drivers/STM32F1xx_HAL_Driver/Src/stm32f1xx_hal_dma.c **** 
 439:Drivers/STM32F1xx_HAL_Driver/Src/stm32f1xx_hal_dma.c ****   /* Disable DMA IT */
 440:Drivers/STM32F1xx_HAL_Driver/Src/stm32f1xx_hal_dma.c ****   __HAL_DMA_DISABLE_IT(hdma, (DMA_IT_TC | DMA_IT_HT | DMA_IT_TE));
 441:Drivers/STM32F1xx_HAL_Driver/Src/stm32f1xx_hal_dma.c ****     
 442:Drivers/STM32F1xx_HAL_Driver/Src/stm32f1xx_hal_dma.c ****   /* Disable the channel */
 443:Drivers/STM32F1xx_HAL_Driver/Src/stm32f1xx_hal_dma.c ****   __HAL_DMA_DISABLE(hdma);
 444:Drivers/STM32F1xx_HAL_Driver/Src/stm32f1xx_hal_dma.c ****     
 445:Drivers/STM32F1xx_HAL_Driver/Src/stm32f1xx_hal_dma.c ****   /* Clear all flags */
 446:Drivers/STM32F1xx_HAL_Driver/Src/stm32f1xx_hal_dma.c ****   hdma->DmaBaseAddress->IFCR = (DMA_ISR_GIF1 << hdma->ChannelIndex);
 447:Drivers/STM32F1xx_HAL_Driver/Src/stm32f1xx_hal_dma.c **** 
 448:Drivers/STM32F1xx_HAL_Driver/Src/stm32f1xx_hal_dma.c ****   /* Change the DMA state */
 449:Drivers/STM32F1xx_HAL_Driver/Src/stm32f1xx_hal_dma.c ****   hdma->State = HAL_DMA_STATE_READY;
 450:Drivers/STM32F1xx_HAL_Driver/Src/stm32f1xx_hal_dma.c **** 
 451:Drivers/STM32F1xx_HAL_Driver/Src/stm32f1xx_hal_dma.c ****   /* Process Unlocked */
 452:Drivers/STM32F1xx_HAL_Driver/Src/stm32f1xx_hal_dma.c ****   __HAL_UNLOCK(hdma);      
 453:Drivers/STM32F1xx_HAL_Driver/Src/stm32f1xx_hal_dma.c ****   
 454:Drivers/STM32F1xx_HAL_Driver/Src/stm32f1xx_hal_dma.c ****   return status; 
 455:Drivers/STM32F1xx_HAL_Driver/Src/stm32f1xx_hal_dma.c **** }
 456:Drivers/STM32F1xx_HAL_Driver/Src/stm32f1xx_hal_dma.c **** 
 457:Drivers/STM32F1xx_HAL_Driver/Src/stm32f1xx_hal_dma.c **** /**
 458:Drivers/STM32F1xx_HAL_Driver/Src/stm32f1xx_hal_dma.c ****   * @brief  Aborts the DMA Transfer in Interrupt mode.
 459:Drivers/STM32F1xx_HAL_Driver/Src/stm32f1xx_hal_dma.c ****   * @param  hdma  : pointer to a DMA_HandleTypeDef structure that contains
 460:Drivers/STM32F1xx_HAL_Driver/Src/stm32f1xx_hal_dma.c ****   *                 the configuration information for the specified DMA Channel.
 461:Drivers/STM32F1xx_HAL_Driver/Src/stm32f1xx_hal_dma.c ****   * @retval HAL status
 462:Drivers/STM32F1xx_HAL_Driver/Src/stm32f1xx_hal_dma.c ****   */
 463:Drivers/STM32F1xx_HAL_Driver/Src/stm32f1xx_hal_dma.c **** HAL_StatusTypeDef HAL_DMA_Abort_IT(DMA_HandleTypeDef *hdma)
 464:Drivers/STM32F1xx_HAL_Driver/Src/stm32f1xx_hal_dma.c **** {  
 465:Drivers/STM32F1xx_HAL_Driver/Src/stm32f1xx_hal_dma.c ****   HAL_StatusTypeDef status = HAL_OK;
 466:Drivers/STM32F1xx_HAL_Driver/Src/stm32f1xx_hal_dma.c ****   
 467:Drivers/STM32F1xx_HAL_Driver/Src/stm32f1xx_hal_dma.c ****   if(HAL_DMA_STATE_BUSY != hdma->State)
 468:Drivers/STM32F1xx_HAL_Driver/Src/stm32f1xx_hal_dma.c ****   {
 469:Drivers/STM32F1xx_HAL_Driver/Src/stm32f1xx_hal_dma.c ****     /* no transfer ongoing */
 470:Drivers/STM32F1xx_HAL_Driver/Src/stm32f1xx_hal_dma.c ****     hdma->ErrorCode = HAL_DMA_ERROR_NO_XFER;
 471:Drivers/STM32F1xx_HAL_Driver/Src/stm32f1xx_hal_dma.c ****         
 472:Drivers/STM32F1xx_HAL_Driver/Src/stm32f1xx_hal_dma.c ****     status = HAL_ERROR;
 473:Drivers/STM32F1xx_HAL_Driver/Src/stm32f1xx_hal_dma.c ****   }
 474:Drivers/STM32F1xx_HAL_Driver/Src/stm32f1xx_hal_dma.c ****   else
 475:Drivers/STM32F1xx_HAL_Driver/Src/stm32f1xx_hal_dma.c ****   { 
 476:Drivers/STM32F1xx_HAL_Driver/Src/stm32f1xx_hal_dma.c ****     /* Disable DMA IT */
 477:Drivers/STM32F1xx_HAL_Driver/Src/stm32f1xx_hal_dma.c ****     __HAL_DMA_DISABLE_IT(hdma, (DMA_IT_TC | DMA_IT_HT | DMA_IT_TE));
 478:Drivers/STM32F1xx_HAL_Driver/Src/stm32f1xx_hal_dma.c **** 
 479:Drivers/STM32F1xx_HAL_Driver/Src/stm32f1xx_hal_dma.c ****     /* Disable the channel */
 480:Drivers/STM32F1xx_HAL_Driver/Src/stm32f1xx_hal_dma.c ****     __HAL_DMA_DISABLE(hdma);
 481:Drivers/STM32F1xx_HAL_Driver/Src/stm32f1xx_hal_dma.c **** 
 482:Drivers/STM32F1xx_HAL_Driver/Src/stm32f1xx_hal_dma.c ****     /* Clear all flags */
 483:Drivers/STM32F1xx_HAL_Driver/Src/stm32f1xx_hal_dma.c ****     __HAL_DMA_CLEAR_FLAG(hdma, __HAL_DMA_GET_GI_FLAG_INDEX(hdma));
 484:Drivers/STM32F1xx_HAL_Driver/Src/stm32f1xx_hal_dma.c **** 
 485:Drivers/STM32F1xx_HAL_Driver/Src/stm32f1xx_hal_dma.c ****     /* Change the DMA state */
 486:Drivers/STM32F1xx_HAL_Driver/Src/stm32f1xx_hal_dma.c ****     hdma->State = HAL_DMA_STATE_READY;
 487:Drivers/STM32F1xx_HAL_Driver/Src/stm32f1xx_hal_dma.c **** 
 488:Drivers/STM32F1xx_HAL_Driver/Src/stm32f1xx_hal_dma.c ****     /* Process Unlocked */
 489:Drivers/STM32F1xx_HAL_Driver/Src/stm32f1xx_hal_dma.c ****     __HAL_UNLOCK(hdma);
 490:Drivers/STM32F1xx_HAL_Driver/Src/stm32f1xx_hal_dma.c **** 
ARM GAS  /tmp/ccqJv02S.s 			page 10


 491:Drivers/STM32F1xx_HAL_Driver/Src/stm32f1xx_hal_dma.c ****     /* Call User Abort callback */
 492:Drivers/STM32F1xx_HAL_Driver/Src/stm32f1xx_hal_dma.c ****     if(hdma->XferAbortCallback != NULL)
 493:Drivers/STM32F1xx_HAL_Driver/Src/stm32f1xx_hal_dma.c ****     {
 494:Drivers/STM32F1xx_HAL_Driver/Src/stm32f1xx_hal_dma.c ****       hdma->XferAbortCallback(hdma);
 495:Drivers/STM32F1xx_HAL_Driver/Src/stm32f1xx_hal_dma.c ****     } 
 496:Drivers/STM32F1xx_HAL_Driver/Src/stm32f1xx_hal_dma.c ****   }
 497:Drivers/STM32F1xx_HAL_Driver/Src/stm32f1xx_hal_dma.c ****   return status;
 498:Drivers/STM32F1xx_HAL_Driver/Src/stm32f1xx_hal_dma.c **** }
 499:Drivers/STM32F1xx_HAL_Driver/Src/stm32f1xx_hal_dma.c **** 
 500:Drivers/STM32F1xx_HAL_Driver/Src/stm32f1xx_hal_dma.c **** /**
 501:Drivers/STM32F1xx_HAL_Driver/Src/stm32f1xx_hal_dma.c ****   * @brief  Polling for transfer complete.
 502:Drivers/STM32F1xx_HAL_Driver/Src/stm32f1xx_hal_dma.c ****   * @param  hdma:    pointer to a DMA_HandleTypeDef structure that contains
 503:Drivers/STM32F1xx_HAL_Driver/Src/stm32f1xx_hal_dma.c ****   *                  the configuration information for the specified DMA Channel.
 504:Drivers/STM32F1xx_HAL_Driver/Src/stm32f1xx_hal_dma.c ****   * @param  CompleteLevel: Specifies the DMA level complete.
 505:Drivers/STM32F1xx_HAL_Driver/Src/stm32f1xx_hal_dma.c ****   * @param  Timeout:       Timeout duration.
 506:Drivers/STM32F1xx_HAL_Driver/Src/stm32f1xx_hal_dma.c ****   * @retval HAL status
 507:Drivers/STM32F1xx_HAL_Driver/Src/stm32f1xx_hal_dma.c ****   */
 508:Drivers/STM32F1xx_HAL_Driver/Src/stm32f1xx_hal_dma.c **** HAL_StatusTypeDef HAL_DMA_PollForTransfer(DMA_HandleTypeDef *hdma, uint32_t CompleteLevel, uint32_t
 509:Drivers/STM32F1xx_HAL_Driver/Src/stm32f1xx_hal_dma.c **** {
 510:Drivers/STM32F1xx_HAL_Driver/Src/stm32f1xx_hal_dma.c ****   uint32_t temp;
 511:Drivers/STM32F1xx_HAL_Driver/Src/stm32f1xx_hal_dma.c ****   uint32_t tickstart = 0U;
 512:Drivers/STM32F1xx_HAL_Driver/Src/stm32f1xx_hal_dma.c **** 
 513:Drivers/STM32F1xx_HAL_Driver/Src/stm32f1xx_hal_dma.c ****   if(HAL_DMA_STATE_BUSY != hdma->State)
 514:Drivers/STM32F1xx_HAL_Driver/Src/stm32f1xx_hal_dma.c ****   {
 515:Drivers/STM32F1xx_HAL_Driver/Src/stm32f1xx_hal_dma.c ****     /* no transfer ongoing */
 516:Drivers/STM32F1xx_HAL_Driver/Src/stm32f1xx_hal_dma.c ****     hdma->ErrorCode = HAL_DMA_ERROR_NO_XFER;
 517:Drivers/STM32F1xx_HAL_Driver/Src/stm32f1xx_hal_dma.c ****     __HAL_UNLOCK(hdma);
 518:Drivers/STM32F1xx_HAL_Driver/Src/stm32f1xx_hal_dma.c ****     return HAL_ERROR;
 519:Drivers/STM32F1xx_HAL_Driver/Src/stm32f1xx_hal_dma.c ****   }
 520:Drivers/STM32F1xx_HAL_Driver/Src/stm32f1xx_hal_dma.c **** 
 521:Drivers/STM32F1xx_HAL_Driver/Src/stm32f1xx_hal_dma.c ****   /* Polling mode not supported in circular mode */
 522:Drivers/STM32F1xx_HAL_Driver/Src/stm32f1xx_hal_dma.c ****   if (RESET != (hdma->Instance->CCR & DMA_CCR_CIRC))
 523:Drivers/STM32F1xx_HAL_Driver/Src/stm32f1xx_hal_dma.c ****   {
 524:Drivers/STM32F1xx_HAL_Driver/Src/stm32f1xx_hal_dma.c ****     hdma->ErrorCode = HAL_DMA_ERROR_NOT_SUPPORTED;
 525:Drivers/STM32F1xx_HAL_Driver/Src/stm32f1xx_hal_dma.c ****     return HAL_ERROR;
 526:Drivers/STM32F1xx_HAL_Driver/Src/stm32f1xx_hal_dma.c ****   }
 527:Drivers/STM32F1xx_HAL_Driver/Src/stm32f1xx_hal_dma.c ****   
 528:Drivers/STM32F1xx_HAL_Driver/Src/stm32f1xx_hal_dma.c ****   /* Get the level transfer complete flag */
 529:Drivers/STM32F1xx_HAL_Driver/Src/stm32f1xx_hal_dma.c ****   if(CompleteLevel == HAL_DMA_FULL_TRANSFER)
 530:Drivers/STM32F1xx_HAL_Driver/Src/stm32f1xx_hal_dma.c ****   {
 531:Drivers/STM32F1xx_HAL_Driver/Src/stm32f1xx_hal_dma.c ****     /* Transfer Complete flag */
 532:Drivers/STM32F1xx_HAL_Driver/Src/stm32f1xx_hal_dma.c ****     temp = __HAL_DMA_GET_TC_FLAG_INDEX(hdma);
 533:Drivers/STM32F1xx_HAL_Driver/Src/stm32f1xx_hal_dma.c ****   }
 534:Drivers/STM32F1xx_HAL_Driver/Src/stm32f1xx_hal_dma.c ****   else
 535:Drivers/STM32F1xx_HAL_Driver/Src/stm32f1xx_hal_dma.c ****   {
 536:Drivers/STM32F1xx_HAL_Driver/Src/stm32f1xx_hal_dma.c ****     /* Half Transfer Complete flag */
 537:Drivers/STM32F1xx_HAL_Driver/Src/stm32f1xx_hal_dma.c ****     temp = __HAL_DMA_GET_HT_FLAG_INDEX(hdma);
 538:Drivers/STM32F1xx_HAL_Driver/Src/stm32f1xx_hal_dma.c ****   }
 539:Drivers/STM32F1xx_HAL_Driver/Src/stm32f1xx_hal_dma.c **** 
 540:Drivers/STM32F1xx_HAL_Driver/Src/stm32f1xx_hal_dma.c ****   /* Get tick */
 541:Drivers/STM32F1xx_HAL_Driver/Src/stm32f1xx_hal_dma.c ****   tickstart = HAL_GetTick();
 542:Drivers/STM32F1xx_HAL_Driver/Src/stm32f1xx_hal_dma.c **** 
 543:Drivers/STM32F1xx_HAL_Driver/Src/stm32f1xx_hal_dma.c ****   while(__HAL_DMA_GET_FLAG(hdma, temp) == RESET)
 544:Drivers/STM32F1xx_HAL_Driver/Src/stm32f1xx_hal_dma.c ****   {
 545:Drivers/STM32F1xx_HAL_Driver/Src/stm32f1xx_hal_dma.c ****     if((__HAL_DMA_GET_FLAG(hdma, __HAL_DMA_GET_TE_FLAG_INDEX(hdma)) != RESET))
 546:Drivers/STM32F1xx_HAL_Driver/Src/stm32f1xx_hal_dma.c ****     {
 547:Drivers/STM32F1xx_HAL_Driver/Src/stm32f1xx_hal_dma.c ****       /* When a DMA transfer error occurs */
ARM GAS  /tmp/ccqJv02S.s 			page 11


 548:Drivers/STM32F1xx_HAL_Driver/Src/stm32f1xx_hal_dma.c ****       /* A hardware clear of its EN bits is performed */
 549:Drivers/STM32F1xx_HAL_Driver/Src/stm32f1xx_hal_dma.c ****       /* Clear all flags */
 550:Drivers/STM32F1xx_HAL_Driver/Src/stm32f1xx_hal_dma.c ****       hdma->DmaBaseAddress->IFCR = (DMA_ISR_GIF1 << hdma->ChannelIndex);
 551:Drivers/STM32F1xx_HAL_Driver/Src/stm32f1xx_hal_dma.c **** 
 552:Drivers/STM32F1xx_HAL_Driver/Src/stm32f1xx_hal_dma.c ****       /* Update error code */
 553:Drivers/STM32F1xx_HAL_Driver/Src/stm32f1xx_hal_dma.c ****       SET_BIT(hdma->ErrorCode, HAL_DMA_ERROR_TE);
 554:Drivers/STM32F1xx_HAL_Driver/Src/stm32f1xx_hal_dma.c **** 
 555:Drivers/STM32F1xx_HAL_Driver/Src/stm32f1xx_hal_dma.c ****       /* Change the DMA state */
 556:Drivers/STM32F1xx_HAL_Driver/Src/stm32f1xx_hal_dma.c ****       hdma->State= HAL_DMA_STATE_READY;
 557:Drivers/STM32F1xx_HAL_Driver/Src/stm32f1xx_hal_dma.c **** 
 558:Drivers/STM32F1xx_HAL_Driver/Src/stm32f1xx_hal_dma.c ****       /* Process Unlocked */
 559:Drivers/STM32F1xx_HAL_Driver/Src/stm32f1xx_hal_dma.c ****       __HAL_UNLOCK(hdma);
 560:Drivers/STM32F1xx_HAL_Driver/Src/stm32f1xx_hal_dma.c **** 
 561:Drivers/STM32F1xx_HAL_Driver/Src/stm32f1xx_hal_dma.c ****       return HAL_ERROR;
 562:Drivers/STM32F1xx_HAL_Driver/Src/stm32f1xx_hal_dma.c ****     }
 563:Drivers/STM32F1xx_HAL_Driver/Src/stm32f1xx_hal_dma.c ****     /* Check for the Timeout */
 564:Drivers/STM32F1xx_HAL_Driver/Src/stm32f1xx_hal_dma.c ****     if(Timeout != HAL_MAX_DELAY)
 565:Drivers/STM32F1xx_HAL_Driver/Src/stm32f1xx_hal_dma.c ****     {
 566:Drivers/STM32F1xx_HAL_Driver/Src/stm32f1xx_hal_dma.c ****       if((Timeout == 0U) || ((HAL_GetTick() - tickstart) > Timeout))
 567:Drivers/STM32F1xx_HAL_Driver/Src/stm32f1xx_hal_dma.c ****       {
 568:Drivers/STM32F1xx_HAL_Driver/Src/stm32f1xx_hal_dma.c ****         /* Update error code */
 569:Drivers/STM32F1xx_HAL_Driver/Src/stm32f1xx_hal_dma.c ****         SET_BIT(hdma->ErrorCode, HAL_DMA_ERROR_TIMEOUT);
 570:Drivers/STM32F1xx_HAL_Driver/Src/stm32f1xx_hal_dma.c **** 
 571:Drivers/STM32F1xx_HAL_Driver/Src/stm32f1xx_hal_dma.c ****         /* Change the DMA state */
 572:Drivers/STM32F1xx_HAL_Driver/Src/stm32f1xx_hal_dma.c ****         hdma->State = HAL_DMA_STATE_READY;
 573:Drivers/STM32F1xx_HAL_Driver/Src/stm32f1xx_hal_dma.c **** 
 574:Drivers/STM32F1xx_HAL_Driver/Src/stm32f1xx_hal_dma.c ****         /* Process Unlocked */
 575:Drivers/STM32F1xx_HAL_Driver/Src/stm32f1xx_hal_dma.c ****         __HAL_UNLOCK(hdma);
 576:Drivers/STM32F1xx_HAL_Driver/Src/stm32f1xx_hal_dma.c **** 
 577:Drivers/STM32F1xx_HAL_Driver/Src/stm32f1xx_hal_dma.c ****         return HAL_ERROR;
 578:Drivers/STM32F1xx_HAL_Driver/Src/stm32f1xx_hal_dma.c ****       }
 579:Drivers/STM32F1xx_HAL_Driver/Src/stm32f1xx_hal_dma.c ****     }
 580:Drivers/STM32F1xx_HAL_Driver/Src/stm32f1xx_hal_dma.c ****   }
 581:Drivers/STM32F1xx_HAL_Driver/Src/stm32f1xx_hal_dma.c **** 
 582:Drivers/STM32F1xx_HAL_Driver/Src/stm32f1xx_hal_dma.c ****   if(CompleteLevel == HAL_DMA_FULL_TRANSFER)
 583:Drivers/STM32F1xx_HAL_Driver/Src/stm32f1xx_hal_dma.c ****   {
 584:Drivers/STM32F1xx_HAL_Driver/Src/stm32f1xx_hal_dma.c ****     /* Clear the transfer complete flag */
 585:Drivers/STM32F1xx_HAL_Driver/Src/stm32f1xx_hal_dma.c ****     __HAL_DMA_CLEAR_FLAG(hdma, __HAL_DMA_GET_TC_FLAG_INDEX(hdma));
 586:Drivers/STM32F1xx_HAL_Driver/Src/stm32f1xx_hal_dma.c **** 
 587:Drivers/STM32F1xx_HAL_Driver/Src/stm32f1xx_hal_dma.c ****     /* The selected Channelx EN bit is cleared (DMA is disabled and
 588:Drivers/STM32F1xx_HAL_Driver/Src/stm32f1xx_hal_dma.c ****     all transfers are complete) */
 589:Drivers/STM32F1xx_HAL_Driver/Src/stm32f1xx_hal_dma.c ****     hdma->State = HAL_DMA_STATE_READY;
 590:Drivers/STM32F1xx_HAL_Driver/Src/stm32f1xx_hal_dma.c ****   }
 591:Drivers/STM32F1xx_HAL_Driver/Src/stm32f1xx_hal_dma.c ****   else
 592:Drivers/STM32F1xx_HAL_Driver/Src/stm32f1xx_hal_dma.c ****   {
 593:Drivers/STM32F1xx_HAL_Driver/Src/stm32f1xx_hal_dma.c ****     /* Clear the half transfer complete flag */
 594:Drivers/STM32F1xx_HAL_Driver/Src/stm32f1xx_hal_dma.c ****     __HAL_DMA_CLEAR_FLAG(hdma, __HAL_DMA_GET_HT_FLAG_INDEX(hdma));
 595:Drivers/STM32F1xx_HAL_Driver/Src/stm32f1xx_hal_dma.c ****   }
 596:Drivers/STM32F1xx_HAL_Driver/Src/stm32f1xx_hal_dma.c ****   
 597:Drivers/STM32F1xx_HAL_Driver/Src/stm32f1xx_hal_dma.c ****   /* Process unlocked */
 598:Drivers/STM32F1xx_HAL_Driver/Src/stm32f1xx_hal_dma.c ****   __HAL_UNLOCK(hdma);
 599:Drivers/STM32F1xx_HAL_Driver/Src/stm32f1xx_hal_dma.c **** 
 600:Drivers/STM32F1xx_HAL_Driver/Src/stm32f1xx_hal_dma.c ****   return HAL_OK;
 601:Drivers/STM32F1xx_HAL_Driver/Src/stm32f1xx_hal_dma.c **** }
 602:Drivers/STM32F1xx_HAL_Driver/Src/stm32f1xx_hal_dma.c **** 
 603:Drivers/STM32F1xx_HAL_Driver/Src/stm32f1xx_hal_dma.c **** /**
 604:Drivers/STM32F1xx_HAL_Driver/Src/stm32f1xx_hal_dma.c ****   * @brief  Handles DMA interrupt request.
ARM GAS  /tmp/ccqJv02S.s 			page 12


 605:Drivers/STM32F1xx_HAL_Driver/Src/stm32f1xx_hal_dma.c ****   * @param  hdma: pointer to a DMA_HandleTypeDef structure that contains
 606:Drivers/STM32F1xx_HAL_Driver/Src/stm32f1xx_hal_dma.c ****   *               the configuration information for the specified DMA Channel.  
 607:Drivers/STM32F1xx_HAL_Driver/Src/stm32f1xx_hal_dma.c ****   * @retval None
 608:Drivers/STM32F1xx_HAL_Driver/Src/stm32f1xx_hal_dma.c ****   */
 609:Drivers/STM32F1xx_HAL_Driver/Src/stm32f1xx_hal_dma.c **** void HAL_DMA_IRQHandler(DMA_HandleTypeDef *hdma)
 610:Drivers/STM32F1xx_HAL_Driver/Src/stm32f1xx_hal_dma.c **** {
 611:Drivers/STM32F1xx_HAL_Driver/Src/stm32f1xx_hal_dma.c ****   uint32_t flag_it = hdma->DmaBaseAddress->ISR;
 612:Drivers/STM32F1xx_HAL_Driver/Src/stm32f1xx_hal_dma.c ****   uint32_t source_it = hdma->Instance->CCR;
 613:Drivers/STM32F1xx_HAL_Driver/Src/stm32f1xx_hal_dma.c ****   
 614:Drivers/STM32F1xx_HAL_Driver/Src/stm32f1xx_hal_dma.c ****   /* Half Transfer Complete Interrupt management ******************************/
 615:Drivers/STM32F1xx_HAL_Driver/Src/stm32f1xx_hal_dma.c ****   if (((flag_it & (DMA_FLAG_HT1 << hdma->ChannelIndex)) != RESET) && ((source_it & DMA_IT_HT) != RE
 616:Drivers/STM32F1xx_HAL_Driver/Src/stm32f1xx_hal_dma.c ****   {
 617:Drivers/STM32F1xx_HAL_Driver/Src/stm32f1xx_hal_dma.c ****     /* Disable the half transfer interrupt if the DMA mode is not CIRCULAR */
 618:Drivers/STM32F1xx_HAL_Driver/Src/stm32f1xx_hal_dma.c ****     if((hdma->Instance->CCR & DMA_CCR_CIRC) == 0U)
 619:Drivers/STM32F1xx_HAL_Driver/Src/stm32f1xx_hal_dma.c ****     {
 620:Drivers/STM32F1xx_HAL_Driver/Src/stm32f1xx_hal_dma.c ****       /* Disable the half transfer interrupt */
 621:Drivers/STM32F1xx_HAL_Driver/Src/stm32f1xx_hal_dma.c ****       __HAL_DMA_DISABLE_IT(hdma, DMA_IT_HT);
 622:Drivers/STM32F1xx_HAL_Driver/Src/stm32f1xx_hal_dma.c ****     }
 623:Drivers/STM32F1xx_HAL_Driver/Src/stm32f1xx_hal_dma.c ****     /* Clear the half transfer complete flag */
 624:Drivers/STM32F1xx_HAL_Driver/Src/stm32f1xx_hal_dma.c ****     __HAL_DMA_CLEAR_FLAG(hdma, __HAL_DMA_GET_HT_FLAG_INDEX(hdma));
 625:Drivers/STM32F1xx_HAL_Driver/Src/stm32f1xx_hal_dma.c **** 
 626:Drivers/STM32F1xx_HAL_Driver/Src/stm32f1xx_hal_dma.c ****     /* DMA peripheral state is not updated in Half Transfer */
 627:Drivers/STM32F1xx_HAL_Driver/Src/stm32f1xx_hal_dma.c ****     /* but in Transfer Complete case */
 628:Drivers/STM32F1xx_HAL_Driver/Src/stm32f1xx_hal_dma.c **** 
 629:Drivers/STM32F1xx_HAL_Driver/Src/stm32f1xx_hal_dma.c ****     if(hdma->XferHalfCpltCallback != NULL)
 630:Drivers/STM32F1xx_HAL_Driver/Src/stm32f1xx_hal_dma.c ****     {
 631:Drivers/STM32F1xx_HAL_Driver/Src/stm32f1xx_hal_dma.c ****       /* Half transfer callback */
 632:Drivers/STM32F1xx_HAL_Driver/Src/stm32f1xx_hal_dma.c ****       hdma->XferHalfCpltCallback(hdma);
 633:Drivers/STM32F1xx_HAL_Driver/Src/stm32f1xx_hal_dma.c ****     }
 634:Drivers/STM32F1xx_HAL_Driver/Src/stm32f1xx_hal_dma.c ****   }
 635:Drivers/STM32F1xx_HAL_Driver/Src/stm32f1xx_hal_dma.c **** 
 636:Drivers/STM32F1xx_HAL_Driver/Src/stm32f1xx_hal_dma.c ****   /* Transfer Complete Interrupt management ***********************************/
 637:Drivers/STM32F1xx_HAL_Driver/Src/stm32f1xx_hal_dma.c ****   else if (((flag_it & (DMA_FLAG_TC1 << hdma->ChannelIndex)) != RESET) && ((source_it & DMA_IT_TC) 
 638:Drivers/STM32F1xx_HAL_Driver/Src/stm32f1xx_hal_dma.c ****   {
 639:Drivers/STM32F1xx_HAL_Driver/Src/stm32f1xx_hal_dma.c ****     if((hdma->Instance->CCR & DMA_CCR_CIRC) == 0U)
 640:Drivers/STM32F1xx_HAL_Driver/Src/stm32f1xx_hal_dma.c ****     {
 641:Drivers/STM32F1xx_HAL_Driver/Src/stm32f1xx_hal_dma.c ****       /* Disable the transfer complete and error interrupt */
 642:Drivers/STM32F1xx_HAL_Driver/Src/stm32f1xx_hal_dma.c ****       __HAL_DMA_DISABLE_IT(hdma, DMA_IT_TE | DMA_IT_TC);  
 643:Drivers/STM32F1xx_HAL_Driver/Src/stm32f1xx_hal_dma.c **** 
 644:Drivers/STM32F1xx_HAL_Driver/Src/stm32f1xx_hal_dma.c ****       /* Change the DMA state */
 645:Drivers/STM32F1xx_HAL_Driver/Src/stm32f1xx_hal_dma.c ****       hdma->State = HAL_DMA_STATE_READY;
 646:Drivers/STM32F1xx_HAL_Driver/Src/stm32f1xx_hal_dma.c ****     }
 647:Drivers/STM32F1xx_HAL_Driver/Src/stm32f1xx_hal_dma.c ****     /* Clear the transfer complete flag */
 648:Drivers/STM32F1xx_HAL_Driver/Src/stm32f1xx_hal_dma.c ****       __HAL_DMA_CLEAR_FLAG(hdma, __HAL_DMA_GET_TC_FLAG_INDEX(hdma));
 649:Drivers/STM32F1xx_HAL_Driver/Src/stm32f1xx_hal_dma.c **** 
 650:Drivers/STM32F1xx_HAL_Driver/Src/stm32f1xx_hal_dma.c ****     /* Process Unlocked */
 651:Drivers/STM32F1xx_HAL_Driver/Src/stm32f1xx_hal_dma.c ****     __HAL_UNLOCK(hdma);
 652:Drivers/STM32F1xx_HAL_Driver/Src/stm32f1xx_hal_dma.c **** 
 653:Drivers/STM32F1xx_HAL_Driver/Src/stm32f1xx_hal_dma.c ****     if(hdma->XferCpltCallback != NULL)
 654:Drivers/STM32F1xx_HAL_Driver/Src/stm32f1xx_hal_dma.c ****     {
 655:Drivers/STM32F1xx_HAL_Driver/Src/stm32f1xx_hal_dma.c ****       /* Transfer complete callback */
 656:Drivers/STM32F1xx_HAL_Driver/Src/stm32f1xx_hal_dma.c ****       hdma->XferCpltCallback(hdma);
 657:Drivers/STM32F1xx_HAL_Driver/Src/stm32f1xx_hal_dma.c ****     }
 658:Drivers/STM32F1xx_HAL_Driver/Src/stm32f1xx_hal_dma.c ****   }
 659:Drivers/STM32F1xx_HAL_Driver/Src/stm32f1xx_hal_dma.c **** 
 660:Drivers/STM32F1xx_HAL_Driver/Src/stm32f1xx_hal_dma.c ****   /* Transfer Error Interrupt management **************************************/
 661:Drivers/STM32F1xx_HAL_Driver/Src/stm32f1xx_hal_dma.c ****   else if (( RESET != (flag_it & (DMA_FLAG_TE1 << hdma->ChannelIndex))) && (RESET != (source_it & D
ARM GAS  /tmp/ccqJv02S.s 			page 13


 662:Drivers/STM32F1xx_HAL_Driver/Src/stm32f1xx_hal_dma.c ****   {
 663:Drivers/STM32F1xx_HAL_Driver/Src/stm32f1xx_hal_dma.c ****     /* When a DMA transfer error occurs */
 664:Drivers/STM32F1xx_HAL_Driver/Src/stm32f1xx_hal_dma.c ****     /* A hardware clear of its EN bits is performed */
 665:Drivers/STM32F1xx_HAL_Driver/Src/stm32f1xx_hal_dma.c ****     /* Disable ALL DMA IT */
 666:Drivers/STM32F1xx_HAL_Driver/Src/stm32f1xx_hal_dma.c ****     __HAL_DMA_DISABLE_IT(hdma, (DMA_IT_TC | DMA_IT_HT | DMA_IT_TE));
 667:Drivers/STM32F1xx_HAL_Driver/Src/stm32f1xx_hal_dma.c **** 
 668:Drivers/STM32F1xx_HAL_Driver/Src/stm32f1xx_hal_dma.c ****     /* Clear all flags */
 669:Drivers/STM32F1xx_HAL_Driver/Src/stm32f1xx_hal_dma.c ****     hdma->DmaBaseAddress->IFCR = (DMA_ISR_GIF1 << hdma->ChannelIndex);
 670:Drivers/STM32F1xx_HAL_Driver/Src/stm32f1xx_hal_dma.c **** 
 671:Drivers/STM32F1xx_HAL_Driver/Src/stm32f1xx_hal_dma.c ****     /* Update error code */
 672:Drivers/STM32F1xx_HAL_Driver/Src/stm32f1xx_hal_dma.c ****     hdma->ErrorCode = HAL_DMA_ERROR_TE;
 673:Drivers/STM32F1xx_HAL_Driver/Src/stm32f1xx_hal_dma.c **** 
 674:Drivers/STM32F1xx_HAL_Driver/Src/stm32f1xx_hal_dma.c ****     /* Change the DMA state */
 675:Drivers/STM32F1xx_HAL_Driver/Src/stm32f1xx_hal_dma.c ****     hdma->State = HAL_DMA_STATE_READY;
 676:Drivers/STM32F1xx_HAL_Driver/Src/stm32f1xx_hal_dma.c **** 
 677:Drivers/STM32F1xx_HAL_Driver/Src/stm32f1xx_hal_dma.c ****     /* Process Unlocked */
 678:Drivers/STM32F1xx_HAL_Driver/Src/stm32f1xx_hal_dma.c ****     __HAL_UNLOCK(hdma);
 679:Drivers/STM32F1xx_HAL_Driver/Src/stm32f1xx_hal_dma.c **** 
 680:Drivers/STM32F1xx_HAL_Driver/Src/stm32f1xx_hal_dma.c ****     if (hdma->XferErrorCallback != NULL)
 681:Drivers/STM32F1xx_HAL_Driver/Src/stm32f1xx_hal_dma.c ****     {
 682:Drivers/STM32F1xx_HAL_Driver/Src/stm32f1xx_hal_dma.c ****       /* Transfer error callback */
 683:Drivers/STM32F1xx_HAL_Driver/Src/stm32f1xx_hal_dma.c ****       hdma->XferErrorCallback(hdma);
 684:Drivers/STM32F1xx_HAL_Driver/Src/stm32f1xx_hal_dma.c ****     }
 685:Drivers/STM32F1xx_HAL_Driver/Src/stm32f1xx_hal_dma.c ****   }
 686:Drivers/STM32F1xx_HAL_Driver/Src/stm32f1xx_hal_dma.c ****   return;
 687:Drivers/STM32F1xx_HAL_Driver/Src/stm32f1xx_hal_dma.c **** }
 688:Drivers/STM32F1xx_HAL_Driver/Src/stm32f1xx_hal_dma.c **** 
 689:Drivers/STM32F1xx_HAL_Driver/Src/stm32f1xx_hal_dma.c **** /**
 690:Drivers/STM32F1xx_HAL_Driver/Src/stm32f1xx_hal_dma.c ****   * @brief Register callbacks
 691:Drivers/STM32F1xx_HAL_Driver/Src/stm32f1xx_hal_dma.c ****   * @param hdma: pointer to a DMA_HandleTypeDef structure that contains
 692:Drivers/STM32F1xx_HAL_Driver/Src/stm32f1xx_hal_dma.c ****   *              the configuration information for the specified DMA Channel.
 693:Drivers/STM32F1xx_HAL_Driver/Src/stm32f1xx_hal_dma.c ****   * @param CallbackID: User Callback identifer
 694:Drivers/STM32F1xx_HAL_Driver/Src/stm32f1xx_hal_dma.c ****   *                    a HAL_DMA_CallbackIDTypeDef ENUM as parameter.
 695:Drivers/STM32F1xx_HAL_Driver/Src/stm32f1xx_hal_dma.c ****   * @param pCallback: pointer to private callbacsk function which has pointer to 
 696:Drivers/STM32F1xx_HAL_Driver/Src/stm32f1xx_hal_dma.c ****   *                   a DMA_HandleTypeDef structure as parameter.
 697:Drivers/STM32F1xx_HAL_Driver/Src/stm32f1xx_hal_dma.c ****   * @retval HAL status
 698:Drivers/STM32F1xx_HAL_Driver/Src/stm32f1xx_hal_dma.c ****   */                          
 699:Drivers/STM32F1xx_HAL_Driver/Src/stm32f1xx_hal_dma.c **** HAL_StatusTypeDef HAL_DMA_RegisterCallback(DMA_HandleTypeDef *hdma, HAL_DMA_CallbackIDTypeDef Callb
 700:Drivers/STM32F1xx_HAL_Driver/Src/stm32f1xx_hal_dma.c **** {
 701:Drivers/STM32F1xx_HAL_Driver/Src/stm32f1xx_hal_dma.c ****   HAL_StatusTypeDef status = HAL_OK;
 702:Drivers/STM32F1xx_HAL_Driver/Src/stm32f1xx_hal_dma.c ****   
 703:Drivers/STM32F1xx_HAL_Driver/Src/stm32f1xx_hal_dma.c ****   /* Process locked */
 704:Drivers/STM32F1xx_HAL_Driver/Src/stm32f1xx_hal_dma.c ****   __HAL_LOCK(hdma);
 705:Drivers/STM32F1xx_HAL_Driver/Src/stm32f1xx_hal_dma.c ****   
 706:Drivers/STM32F1xx_HAL_Driver/Src/stm32f1xx_hal_dma.c ****   if(HAL_DMA_STATE_READY == hdma->State)
 707:Drivers/STM32F1xx_HAL_Driver/Src/stm32f1xx_hal_dma.c ****   {
 708:Drivers/STM32F1xx_HAL_Driver/Src/stm32f1xx_hal_dma.c ****     switch (CallbackID)
 709:Drivers/STM32F1xx_HAL_Driver/Src/stm32f1xx_hal_dma.c ****     {
 710:Drivers/STM32F1xx_HAL_Driver/Src/stm32f1xx_hal_dma.c ****     case  HAL_DMA_XFER_CPLT_CB_ID:
 711:Drivers/STM32F1xx_HAL_Driver/Src/stm32f1xx_hal_dma.c ****       hdma->XferCpltCallback = pCallback;
 712:Drivers/STM32F1xx_HAL_Driver/Src/stm32f1xx_hal_dma.c ****       break;
 713:Drivers/STM32F1xx_HAL_Driver/Src/stm32f1xx_hal_dma.c ****       
 714:Drivers/STM32F1xx_HAL_Driver/Src/stm32f1xx_hal_dma.c ****     case  HAL_DMA_XFER_HALFCPLT_CB_ID:
 715:Drivers/STM32F1xx_HAL_Driver/Src/stm32f1xx_hal_dma.c ****       hdma->XferHalfCpltCallback = pCallback;
 716:Drivers/STM32F1xx_HAL_Driver/Src/stm32f1xx_hal_dma.c ****       break;         
 717:Drivers/STM32F1xx_HAL_Driver/Src/stm32f1xx_hal_dma.c **** 
 718:Drivers/STM32F1xx_HAL_Driver/Src/stm32f1xx_hal_dma.c ****     case  HAL_DMA_XFER_ERROR_CB_ID:
ARM GAS  /tmp/ccqJv02S.s 			page 14


 719:Drivers/STM32F1xx_HAL_Driver/Src/stm32f1xx_hal_dma.c ****       hdma->XferErrorCallback = pCallback;
 720:Drivers/STM32F1xx_HAL_Driver/Src/stm32f1xx_hal_dma.c ****       break;         
 721:Drivers/STM32F1xx_HAL_Driver/Src/stm32f1xx_hal_dma.c ****       
 722:Drivers/STM32F1xx_HAL_Driver/Src/stm32f1xx_hal_dma.c ****     case  HAL_DMA_XFER_ABORT_CB_ID:
 723:Drivers/STM32F1xx_HAL_Driver/Src/stm32f1xx_hal_dma.c ****       hdma->XferAbortCallback = pCallback;
 724:Drivers/STM32F1xx_HAL_Driver/Src/stm32f1xx_hal_dma.c ****       break; 
 725:Drivers/STM32F1xx_HAL_Driver/Src/stm32f1xx_hal_dma.c ****       
 726:Drivers/STM32F1xx_HAL_Driver/Src/stm32f1xx_hal_dma.c ****     default:
 727:Drivers/STM32F1xx_HAL_Driver/Src/stm32f1xx_hal_dma.c ****       status = HAL_ERROR;
 728:Drivers/STM32F1xx_HAL_Driver/Src/stm32f1xx_hal_dma.c ****       break;                                                            
 729:Drivers/STM32F1xx_HAL_Driver/Src/stm32f1xx_hal_dma.c ****     }
 730:Drivers/STM32F1xx_HAL_Driver/Src/stm32f1xx_hal_dma.c ****   }
 731:Drivers/STM32F1xx_HAL_Driver/Src/stm32f1xx_hal_dma.c ****   else
 732:Drivers/STM32F1xx_HAL_Driver/Src/stm32f1xx_hal_dma.c ****   {
 733:Drivers/STM32F1xx_HAL_Driver/Src/stm32f1xx_hal_dma.c ****     status = HAL_ERROR;
 734:Drivers/STM32F1xx_HAL_Driver/Src/stm32f1xx_hal_dma.c ****   } 
 735:Drivers/STM32F1xx_HAL_Driver/Src/stm32f1xx_hal_dma.c ****   
 736:Drivers/STM32F1xx_HAL_Driver/Src/stm32f1xx_hal_dma.c ****   /* Release Lock */
 737:Drivers/STM32F1xx_HAL_Driver/Src/stm32f1xx_hal_dma.c ****   __HAL_UNLOCK(hdma);
 738:Drivers/STM32F1xx_HAL_Driver/Src/stm32f1xx_hal_dma.c ****   
 739:Drivers/STM32F1xx_HAL_Driver/Src/stm32f1xx_hal_dma.c ****   return status;
 740:Drivers/STM32F1xx_HAL_Driver/Src/stm32f1xx_hal_dma.c **** }
 741:Drivers/STM32F1xx_HAL_Driver/Src/stm32f1xx_hal_dma.c **** 
 742:Drivers/STM32F1xx_HAL_Driver/Src/stm32f1xx_hal_dma.c **** /**
 743:Drivers/STM32F1xx_HAL_Driver/Src/stm32f1xx_hal_dma.c ****   * @brief UnRegister callbacks
 744:Drivers/STM32F1xx_HAL_Driver/Src/stm32f1xx_hal_dma.c ****   * @param hdma: pointer to a DMA_HandleTypeDef structure that contains
 745:Drivers/STM32F1xx_HAL_Driver/Src/stm32f1xx_hal_dma.c ****   *              the configuration information for the specified DMA Channel.
 746:Drivers/STM32F1xx_HAL_Driver/Src/stm32f1xx_hal_dma.c ****   * @param CallbackID: User Callback identifer
 747:Drivers/STM32F1xx_HAL_Driver/Src/stm32f1xx_hal_dma.c ****   *                    a HAL_DMA_CallbackIDTypeDef ENUM as parameter.
 748:Drivers/STM32F1xx_HAL_Driver/Src/stm32f1xx_hal_dma.c ****   * @retval HAL status
 749:Drivers/STM32F1xx_HAL_Driver/Src/stm32f1xx_hal_dma.c ****   */              
 750:Drivers/STM32F1xx_HAL_Driver/Src/stm32f1xx_hal_dma.c **** HAL_StatusTypeDef HAL_DMA_UnRegisterCallback(DMA_HandleTypeDef *hdma, HAL_DMA_CallbackIDTypeDef Cal
 751:Drivers/STM32F1xx_HAL_Driver/Src/stm32f1xx_hal_dma.c **** {
 752:Drivers/STM32F1xx_HAL_Driver/Src/stm32f1xx_hal_dma.c ****   HAL_StatusTypeDef status = HAL_OK;
 753:Drivers/STM32F1xx_HAL_Driver/Src/stm32f1xx_hal_dma.c **** 
 754:Drivers/STM32F1xx_HAL_Driver/Src/stm32f1xx_hal_dma.c ****   /* Process locked */
 755:Drivers/STM32F1xx_HAL_Driver/Src/stm32f1xx_hal_dma.c ****   __HAL_LOCK(hdma);
 756:Drivers/STM32F1xx_HAL_Driver/Src/stm32f1xx_hal_dma.c ****   
 757:Drivers/STM32F1xx_HAL_Driver/Src/stm32f1xx_hal_dma.c ****   if(HAL_DMA_STATE_READY == hdma->State)
 758:Drivers/STM32F1xx_HAL_Driver/Src/stm32f1xx_hal_dma.c ****   {
 759:Drivers/STM32F1xx_HAL_Driver/Src/stm32f1xx_hal_dma.c ****     switch (CallbackID)
 760:Drivers/STM32F1xx_HAL_Driver/Src/stm32f1xx_hal_dma.c ****     {
 761:Drivers/STM32F1xx_HAL_Driver/Src/stm32f1xx_hal_dma.c ****     case  HAL_DMA_XFER_CPLT_CB_ID:
 762:Drivers/STM32F1xx_HAL_Driver/Src/stm32f1xx_hal_dma.c ****       hdma->XferCpltCallback = NULL;
 763:Drivers/STM32F1xx_HAL_Driver/Src/stm32f1xx_hal_dma.c ****       break;
 764:Drivers/STM32F1xx_HAL_Driver/Src/stm32f1xx_hal_dma.c **** 
 765:Drivers/STM32F1xx_HAL_Driver/Src/stm32f1xx_hal_dma.c ****     case  HAL_DMA_XFER_HALFCPLT_CB_ID:
 766:Drivers/STM32F1xx_HAL_Driver/Src/stm32f1xx_hal_dma.c ****       hdma->XferHalfCpltCallback = NULL;
 767:Drivers/STM32F1xx_HAL_Driver/Src/stm32f1xx_hal_dma.c ****       break;         
 768:Drivers/STM32F1xx_HAL_Driver/Src/stm32f1xx_hal_dma.c **** 
 769:Drivers/STM32F1xx_HAL_Driver/Src/stm32f1xx_hal_dma.c ****     case  HAL_DMA_XFER_ERROR_CB_ID:
 770:Drivers/STM32F1xx_HAL_Driver/Src/stm32f1xx_hal_dma.c ****       hdma->XferErrorCallback = NULL;
 771:Drivers/STM32F1xx_HAL_Driver/Src/stm32f1xx_hal_dma.c ****       break;         
 772:Drivers/STM32F1xx_HAL_Driver/Src/stm32f1xx_hal_dma.c **** 
 773:Drivers/STM32F1xx_HAL_Driver/Src/stm32f1xx_hal_dma.c ****     case  HAL_DMA_XFER_ABORT_CB_ID:
 774:Drivers/STM32F1xx_HAL_Driver/Src/stm32f1xx_hal_dma.c ****       hdma->XferAbortCallback = NULL;
 775:Drivers/STM32F1xx_HAL_Driver/Src/stm32f1xx_hal_dma.c ****       break; 
ARM GAS  /tmp/ccqJv02S.s 			page 15


 776:Drivers/STM32F1xx_HAL_Driver/Src/stm32f1xx_hal_dma.c **** 
 777:Drivers/STM32F1xx_HAL_Driver/Src/stm32f1xx_hal_dma.c ****     case   HAL_DMA_XFER_ALL_CB_ID:
 778:Drivers/STM32F1xx_HAL_Driver/Src/stm32f1xx_hal_dma.c ****       hdma->XferCpltCallback = NULL;
 779:Drivers/STM32F1xx_HAL_Driver/Src/stm32f1xx_hal_dma.c ****       hdma->XferHalfCpltCallback = NULL;
 780:Drivers/STM32F1xx_HAL_Driver/Src/stm32f1xx_hal_dma.c ****       hdma->XferErrorCallback = NULL;
 781:Drivers/STM32F1xx_HAL_Driver/Src/stm32f1xx_hal_dma.c ****       hdma->XferAbortCallback = NULL;
 782:Drivers/STM32F1xx_HAL_Driver/Src/stm32f1xx_hal_dma.c ****       break; 
 783:Drivers/STM32F1xx_HAL_Driver/Src/stm32f1xx_hal_dma.c **** 
 784:Drivers/STM32F1xx_HAL_Driver/Src/stm32f1xx_hal_dma.c ****     default:
 785:Drivers/STM32F1xx_HAL_Driver/Src/stm32f1xx_hal_dma.c ****       status = HAL_ERROR;
 786:Drivers/STM32F1xx_HAL_Driver/Src/stm32f1xx_hal_dma.c ****       break;
 787:Drivers/STM32F1xx_HAL_Driver/Src/stm32f1xx_hal_dma.c ****     }
 788:Drivers/STM32F1xx_HAL_Driver/Src/stm32f1xx_hal_dma.c ****   }
 789:Drivers/STM32F1xx_HAL_Driver/Src/stm32f1xx_hal_dma.c ****   else
 790:Drivers/STM32F1xx_HAL_Driver/Src/stm32f1xx_hal_dma.c ****   {
 791:Drivers/STM32F1xx_HAL_Driver/Src/stm32f1xx_hal_dma.c ****     status = HAL_ERROR;
 792:Drivers/STM32F1xx_HAL_Driver/Src/stm32f1xx_hal_dma.c ****   } 
 793:Drivers/STM32F1xx_HAL_Driver/Src/stm32f1xx_hal_dma.c ****   
 794:Drivers/STM32F1xx_HAL_Driver/Src/stm32f1xx_hal_dma.c ****   /* Release Lock */
 795:Drivers/STM32F1xx_HAL_Driver/Src/stm32f1xx_hal_dma.c ****   __HAL_UNLOCK(hdma);
 796:Drivers/STM32F1xx_HAL_Driver/Src/stm32f1xx_hal_dma.c ****   
 797:Drivers/STM32F1xx_HAL_Driver/Src/stm32f1xx_hal_dma.c ****   return status;
 798:Drivers/STM32F1xx_HAL_Driver/Src/stm32f1xx_hal_dma.c **** }
 799:Drivers/STM32F1xx_HAL_Driver/Src/stm32f1xx_hal_dma.c ****   
 800:Drivers/STM32F1xx_HAL_Driver/Src/stm32f1xx_hal_dma.c **** /**
 801:Drivers/STM32F1xx_HAL_Driver/Src/stm32f1xx_hal_dma.c ****   * @}
 802:Drivers/STM32F1xx_HAL_Driver/Src/stm32f1xx_hal_dma.c ****   */
 803:Drivers/STM32F1xx_HAL_Driver/Src/stm32f1xx_hal_dma.c **** 
 804:Drivers/STM32F1xx_HAL_Driver/Src/stm32f1xx_hal_dma.c **** /** @defgroup DMA_Exported_Functions_Group3 Peripheral State and Errors functions
 805:Drivers/STM32F1xx_HAL_Driver/Src/stm32f1xx_hal_dma.c ****   *  @brief    Peripheral State and Errors functions
 806:Drivers/STM32F1xx_HAL_Driver/Src/stm32f1xx_hal_dma.c ****   *
 807:Drivers/STM32F1xx_HAL_Driver/Src/stm32f1xx_hal_dma.c **** @verbatim
 808:Drivers/STM32F1xx_HAL_Driver/Src/stm32f1xx_hal_dma.c ****  ===============================================================================
 809:Drivers/STM32F1xx_HAL_Driver/Src/stm32f1xx_hal_dma.c ****             ##### Peripheral State and Errors functions #####
 810:Drivers/STM32F1xx_HAL_Driver/Src/stm32f1xx_hal_dma.c ****  ===============================================================================  
 811:Drivers/STM32F1xx_HAL_Driver/Src/stm32f1xx_hal_dma.c ****     [..]
 812:Drivers/STM32F1xx_HAL_Driver/Src/stm32f1xx_hal_dma.c ****     This subsection provides functions allowing to
 813:Drivers/STM32F1xx_HAL_Driver/Src/stm32f1xx_hal_dma.c ****       (+) Check the DMA state
 814:Drivers/STM32F1xx_HAL_Driver/Src/stm32f1xx_hal_dma.c ****       (+) Get error code
 815:Drivers/STM32F1xx_HAL_Driver/Src/stm32f1xx_hal_dma.c **** 
 816:Drivers/STM32F1xx_HAL_Driver/Src/stm32f1xx_hal_dma.c **** @endverbatim
 817:Drivers/STM32F1xx_HAL_Driver/Src/stm32f1xx_hal_dma.c ****   * @{
 818:Drivers/STM32F1xx_HAL_Driver/Src/stm32f1xx_hal_dma.c ****   */
 819:Drivers/STM32F1xx_HAL_Driver/Src/stm32f1xx_hal_dma.c **** 
 820:Drivers/STM32F1xx_HAL_Driver/Src/stm32f1xx_hal_dma.c **** /**
 821:Drivers/STM32F1xx_HAL_Driver/Src/stm32f1xx_hal_dma.c ****   * @brief  Return the DMA hande state.
 822:Drivers/STM32F1xx_HAL_Driver/Src/stm32f1xx_hal_dma.c ****   * @param  hdma: pointer to a DMA_HandleTypeDef structure that contains
 823:Drivers/STM32F1xx_HAL_Driver/Src/stm32f1xx_hal_dma.c ****   *               the configuration information for the specified DMA Channel.
 824:Drivers/STM32F1xx_HAL_Driver/Src/stm32f1xx_hal_dma.c ****   * @retval HAL state
 825:Drivers/STM32F1xx_HAL_Driver/Src/stm32f1xx_hal_dma.c ****   */
 826:Drivers/STM32F1xx_HAL_Driver/Src/stm32f1xx_hal_dma.c **** HAL_DMA_StateTypeDef HAL_DMA_GetState(DMA_HandleTypeDef *hdma)
 827:Drivers/STM32F1xx_HAL_Driver/Src/stm32f1xx_hal_dma.c **** {
 828:Drivers/STM32F1xx_HAL_Driver/Src/stm32f1xx_hal_dma.c ****   /* Return DMA handle state */
 829:Drivers/STM32F1xx_HAL_Driver/Src/stm32f1xx_hal_dma.c ****   return hdma->State;
 830:Drivers/STM32F1xx_HAL_Driver/Src/stm32f1xx_hal_dma.c **** }
 831:Drivers/STM32F1xx_HAL_Driver/Src/stm32f1xx_hal_dma.c **** 
 832:Drivers/STM32F1xx_HAL_Driver/Src/stm32f1xx_hal_dma.c **** /**
ARM GAS  /tmp/ccqJv02S.s 			page 16


 833:Drivers/STM32F1xx_HAL_Driver/Src/stm32f1xx_hal_dma.c ****   * @brief  Return the DMA error code.
 834:Drivers/STM32F1xx_HAL_Driver/Src/stm32f1xx_hal_dma.c ****   * @param  hdma : pointer to a DMA_HandleTypeDef structure that contains
 835:Drivers/STM32F1xx_HAL_Driver/Src/stm32f1xx_hal_dma.c ****   *              the configuration information for the specified DMA Channel.
 836:Drivers/STM32F1xx_HAL_Driver/Src/stm32f1xx_hal_dma.c ****   * @retval DMA Error Code
 837:Drivers/STM32F1xx_HAL_Driver/Src/stm32f1xx_hal_dma.c ****   */
 838:Drivers/STM32F1xx_HAL_Driver/Src/stm32f1xx_hal_dma.c **** uint32_t HAL_DMA_GetError(DMA_HandleTypeDef *hdma)
 839:Drivers/STM32F1xx_HAL_Driver/Src/stm32f1xx_hal_dma.c **** {
 840:Drivers/STM32F1xx_HAL_Driver/Src/stm32f1xx_hal_dma.c ****   return hdma->ErrorCode;
 841:Drivers/STM32F1xx_HAL_Driver/Src/stm32f1xx_hal_dma.c **** }
 842:Drivers/STM32F1xx_HAL_Driver/Src/stm32f1xx_hal_dma.c **** 
 843:Drivers/STM32F1xx_HAL_Driver/Src/stm32f1xx_hal_dma.c **** /**
 844:Drivers/STM32F1xx_HAL_Driver/Src/stm32f1xx_hal_dma.c ****   * @}
 845:Drivers/STM32F1xx_HAL_Driver/Src/stm32f1xx_hal_dma.c ****   */
 846:Drivers/STM32F1xx_HAL_Driver/Src/stm32f1xx_hal_dma.c **** 
 847:Drivers/STM32F1xx_HAL_Driver/Src/stm32f1xx_hal_dma.c **** /**
 848:Drivers/STM32F1xx_HAL_Driver/Src/stm32f1xx_hal_dma.c ****   * @}
 849:Drivers/STM32F1xx_HAL_Driver/Src/stm32f1xx_hal_dma.c ****   */
 850:Drivers/STM32F1xx_HAL_Driver/Src/stm32f1xx_hal_dma.c **** 
 851:Drivers/STM32F1xx_HAL_Driver/Src/stm32f1xx_hal_dma.c **** /** @addtogroup DMA_Private_Functions
 852:Drivers/STM32F1xx_HAL_Driver/Src/stm32f1xx_hal_dma.c ****   * @{
 853:Drivers/STM32F1xx_HAL_Driver/Src/stm32f1xx_hal_dma.c ****   */
 854:Drivers/STM32F1xx_HAL_Driver/Src/stm32f1xx_hal_dma.c **** 
 855:Drivers/STM32F1xx_HAL_Driver/Src/stm32f1xx_hal_dma.c **** /**
 856:Drivers/STM32F1xx_HAL_Driver/Src/stm32f1xx_hal_dma.c ****   * @brief  Sets the DMA Transfer parameter.
 857:Drivers/STM32F1xx_HAL_Driver/Src/stm32f1xx_hal_dma.c ****   * @param  hdma:       pointer to a DMA_HandleTypeDef structure that contains
 858:Drivers/STM32F1xx_HAL_Driver/Src/stm32f1xx_hal_dma.c ****   *                     the configuration information for the specified DMA Channel.
 859:Drivers/STM32F1xx_HAL_Driver/Src/stm32f1xx_hal_dma.c ****   * @param  SrcAddress: The source memory Buffer address
 860:Drivers/STM32F1xx_HAL_Driver/Src/stm32f1xx_hal_dma.c ****   * @param  DstAddress: The destination memory Buffer address
 861:Drivers/STM32F1xx_HAL_Driver/Src/stm32f1xx_hal_dma.c ****   * @param  DataLength: The length of data to be transferred from source to destination
 862:Drivers/STM32F1xx_HAL_Driver/Src/stm32f1xx_hal_dma.c ****   * @retval HAL status
 863:Drivers/STM32F1xx_HAL_Driver/Src/stm32f1xx_hal_dma.c ****   */
 864:Drivers/STM32F1xx_HAL_Driver/Src/stm32f1xx_hal_dma.c **** static void DMA_SetConfig(DMA_HandleTypeDef *hdma, uint32_t SrcAddress, uint32_t DstAddress, uint32
 865:Drivers/STM32F1xx_HAL_Driver/Src/stm32f1xx_hal_dma.c **** {
  25              		.loc 1 865 0
  26              		.cfi_startproc
  27              		@ args = 0, pretend = 0, frame = 0
  28              		@ frame_needed = 0, uses_anonymous_args = 0
  29              		@ link register save eliminated.
  30              	.LVL0:
  31 0000 70B4     		push	{r4, r5, r6}
  32              	.LCFI0:
  33              		.cfi_def_cfa_offset 12
  34              		.cfi_offset 4, -12
  35              		.cfi_offset 5, -8
  36              		.cfi_offset 6, -4
 866:Drivers/STM32F1xx_HAL_Driver/Src/stm32f1xx_hal_dma.c ****   /* Clear all flags */
 867:Drivers/STM32F1xx_HAL_Driver/Src/stm32f1xx_hal_dma.c ****   hdma->DmaBaseAddress->IFCR = (DMA_ISR_GIF1 << hdma->ChannelIndex);
  37              		.loc 1 867 0
  38 0002 C56B     		ldr	r5, [r0, #60]
  39 0004 066C     		ldr	r6, [r0, #64]
  40 0006 0124     		movs	r4, #1
  41 0008 B440     		lsls	r4, r4, r6
  42 000a 6C60     		str	r4, [r5, #4]
 868:Drivers/STM32F1xx_HAL_Driver/Src/stm32f1xx_hal_dma.c **** 
 869:Drivers/STM32F1xx_HAL_Driver/Src/stm32f1xx_hal_dma.c ****   /* Configure DMA Channel data length */
 870:Drivers/STM32F1xx_HAL_Driver/Src/stm32f1xx_hal_dma.c ****   hdma->Instance->CNDTR = DataLength;
  43              		.loc 1 870 0
ARM GAS  /tmp/ccqJv02S.s 			page 17


  44 000c 0468     		ldr	r4, [r0]
  45 000e 6360     		str	r3, [r4, #4]
 871:Drivers/STM32F1xx_HAL_Driver/Src/stm32f1xx_hal_dma.c **** 
 872:Drivers/STM32F1xx_HAL_Driver/Src/stm32f1xx_hal_dma.c ****   /* Memory to Peripheral */
 873:Drivers/STM32F1xx_HAL_Driver/Src/stm32f1xx_hal_dma.c ****   if((hdma->Init.Direction) == DMA_MEMORY_TO_PERIPH)
  46              		.loc 1 873 0
  47 0010 4368     		ldr	r3, [r0, #4]
  48              	.LVL1:
  49 0012 102B     		cmp	r3, #16
  50 0014 05D0     		beq	.L5
 874:Drivers/STM32F1xx_HAL_Driver/Src/stm32f1xx_hal_dma.c ****   {
 875:Drivers/STM32F1xx_HAL_Driver/Src/stm32f1xx_hal_dma.c ****     /* Configure DMA Channel destination address */
 876:Drivers/STM32F1xx_HAL_Driver/Src/stm32f1xx_hal_dma.c ****     hdma->Instance->CPAR = DstAddress;
 877:Drivers/STM32F1xx_HAL_Driver/Src/stm32f1xx_hal_dma.c **** 
 878:Drivers/STM32F1xx_HAL_Driver/Src/stm32f1xx_hal_dma.c ****     /* Configure DMA Channel source address */
 879:Drivers/STM32F1xx_HAL_Driver/Src/stm32f1xx_hal_dma.c ****     hdma->Instance->CMAR = SrcAddress;
 880:Drivers/STM32F1xx_HAL_Driver/Src/stm32f1xx_hal_dma.c ****   }
 881:Drivers/STM32F1xx_HAL_Driver/Src/stm32f1xx_hal_dma.c ****   /* Peripheral to Memory */
 882:Drivers/STM32F1xx_HAL_Driver/Src/stm32f1xx_hal_dma.c ****   else
 883:Drivers/STM32F1xx_HAL_Driver/Src/stm32f1xx_hal_dma.c ****   {
 884:Drivers/STM32F1xx_HAL_Driver/Src/stm32f1xx_hal_dma.c ****     /* Configure DMA Channel source address */
 885:Drivers/STM32F1xx_HAL_Driver/Src/stm32f1xx_hal_dma.c ****     hdma->Instance->CPAR = SrcAddress;
  51              		.loc 1 885 0
  52 0016 0368     		ldr	r3, [r0]
  53 0018 9960     		str	r1, [r3, #8]
  54              	.LVL2:
 886:Drivers/STM32F1xx_HAL_Driver/Src/stm32f1xx_hal_dma.c **** 
 887:Drivers/STM32F1xx_HAL_Driver/Src/stm32f1xx_hal_dma.c ****     /* Configure DMA Channel destination address */
 888:Drivers/STM32F1xx_HAL_Driver/Src/stm32f1xx_hal_dma.c ****     hdma->Instance->CMAR = DstAddress;
  55              		.loc 1 888 0
  56 001a 0368     		ldr	r3, [r0]
  57 001c DA60     		str	r2, [r3, #12]
  58              	.L1:
 889:Drivers/STM32F1xx_HAL_Driver/Src/stm32f1xx_hal_dma.c ****   }
 890:Drivers/STM32F1xx_HAL_Driver/Src/stm32f1xx_hal_dma.c **** }
  59              		.loc 1 890 0
  60 001e 70BC     		pop	{r4, r5, r6}
  61              	.LCFI1:
  62              		.cfi_remember_state
  63              		.cfi_restore 6
  64              		.cfi_restore 5
  65              		.cfi_restore 4
  66              		.cfi_def_cfa_offset 0
  67 0020 7047     		bx	lr
  68              	.LVL3:
  69              	.L5:
  70              	.LCFI2:
  71              		.cfi_restore_state
 876:Drivers/STM32F1xx_HAL_Driver/Src/stm32f1xx_hal_dma.c **** 
  72              		.loc 1 876 0
  73 0022 0368     		ldr	r3, [r0]
  74 0024 9A60     		str	r2, [r3, #8]
  75              	.LVL4:
 879:Drivers/STM32F1xx_HAL_Driver/Src/stm32f1xx_hal_dma.c ****   }
  76              		.loc 1 879 0
  77 0026 0368     		ldr	r3, [r0]
  78 0028 D960     		str	r1, [r3, #12]
ARM GAS  /tmp/ccqJv02S.s 			page 18


  79 002a F8E7     		b	.L1
  80              		.cfi_endproc
  81              	.LFE76:
  83              		.section	.text.HAL_DMA_Init,"ax",%progbits
  84              		.align	1
  85              		.global	HAL_DMA_Init
  86              		.syntax unified
  87              		.thumb
  88              		.thumb_func
  89              		.fpu softvfp
  91              	HAL_DMA_Init:
  92              	.LFB64:
 162:Drivers/STM32F1xx_HAL_Driver/Src/stm32f1xx_hal_dma.c ****   uint32_t tmp = 0U;
  93              		.loc 1 162 0
  94              		.cfi_startproc
  95              		@ args = 0, pretend = 0, frame = 0
  96              		@ frame_needed = 0, uses_anonymous_args = 0
  97              		@ link register save eliminated.
  98              	.LVL5:
 166:Drivers/STM32F1xx_HAL_Driver/Src/stm32f1xx_hal_dma.c ****   {
  99              		.loc 1 166 0
 100 0000 0028     		cmp	r0, #0
 101 0002 3FD0     		beq	.L10
 162:Drivers/STM32F1xx_HAL_Driver/Src/stm32f1xx_hal_dma.c ****   uint32_t tmp = 0U;
 102              		.loc 1 162 0
 103 0004 10B4     		push	{r4}
 104              	.LCFI3:
 105              		.cfi_def_cfa_offset 4
 106              		.cfi_offset 4, -4
 107 0006 0346     		mov	r3, r0
 183:Drivers/STM32F1xx_HAL_Driver/Src/stm32f1xx_hal_dma.c ****   {
 108              		.loc 1 183 0
 109 0008 0168     		ldr	r1, [r0]
 110 000a 1F4A     		ldr	r2, .L15
 111 000c 9142     		cmp	r1, r2
 112 000e 2ED8     		bhi	.L8
 186:Drivers/STM32F1xx_HAL_Driver/Src/stm32f1xx_hal_dma.c ****     hdma->DmaBaseAddress = DMA1;
 113              		.loc 1 186 0
 114 0010 1E4A     		ldr	r2, .L15+4
 115 0012 0A44     		add	r2, r2, r1
 116 0014 1E49     		ldr	r1, .L15+8
 117 0016 A1FB0212 		umull	r1, r2, r1, r2
 118 001a 1209     		lsrs	r2, r2, #4
 119 001c 9200     		lsls	r2, r2, #2
 120 001e 0264     		str	r2, [r0, #64]
 187:Drivers/STM32F1xx_HAL_Driver/Src/stm32f1xx_hal_dma.c ****   }
 121              		.loc 1 187 0
 122 0020 1C4A     		ldr	r2, .L15+12
 123 0022 C263     		str	r2, [r0, #60]
 124              	.L9:
 202:Drivers/STM32F1xx_HAL_Driver/Src/stm32f1xx_hal_dma.c **** 
 125              		.loc 1 202 0
 126 0024 0222     		movs	r2, #2
 127 0026 83F82120 		strb	r2, [r3, #33]
 205:Drivers/STM32F1xx_HAL_Driver/Src/stm32f1xx_hal_dma.c **** 
 128              		.loc 1 205 0
 129 002a 1868     		ldr	r0, [r3]
ARM GAS  /tmp/ccqJv02S.s 			page 19


 130              	.LVL6:
 131 002c 0168     		ldr	r1, [r0]
 132              	.LVL7:
 208:Drivers/STM32F1xx_HAL_Driver/Src/stm32f1xx_hal_dma.c ****                       DMA_CCR_MINC  | DMA_CCR_PINC   | DMA_CCR_CIRC   | \
 133              		.loc 1 208 0
 134 002e 21F47F51 		bic	r1, r1, #16320
 135              	.LVL8:
 136 0032 21F03001 		bic	r1, r1, #48
 137              	.LVL9:
 213:Drivers/STM32F1xx_HAL_Driver/Src/stm32f1xx_hal_dma.c ****           hdma->Init.PeriphInc           | hdma->Init.MemInc           |
 138              		.loc 1 213 0
 139 0036 5A68     		ldr	r2, [r3, #4]
 214:Drivers/STM32F1xx_HAL_Driver/Src/stm32f1xx_hal_dma.c ****           hdma->Init.PeriphDataAlignment | hdma->Init.MemDataAlignment |
 140              		.loc 1 214 0
 141 0038 9C68     		ldr	r4, [r3, #8]
 213:Drivers/STM32F1xx_HAL_Driver/Src/stm32f1xx_hal_dma.c ****           hdma->Init.PeriphInc           | hdma->Init.MemInc           |
 142              		.loc 1 213 0
 143 003a 2243     		orrs	r2, r2, r4
 214:Drivers/STM32F1xx_HAL_Driver/Src/stm32f1xx_hal_dma.c ****           hdma->Init.PeriphDataAlignment | hdma->Init.MemDataAlignment |
 144              		.loc 1 214 0
 145 003c DC68     		ldr	r4, [r3, #12]
 146 003e 2243     		orrs	r2, r2, r4
 215:Drivers/STM32F1xx_HAL_Driver/Src/stm32f1xx_hal_dma.c ****           hdma->Init.Mode                | hdma->Init.Priority;
 147              		.loc 1 215 0
 148 0040 1C69     		ldr	r4, [r3, #16]
 214:Drivers/STM32F1xx_HAL_Driver/Src/stm32f1xx_hal_dma.c ****           hdma->Init.PeriphDataAlignment | hdma->Init.MemDataAlignment |
 149              		.loc 1 214 0
 150 0042 2243     		orrs	r2, r2, r4
 215:Drivers/STM32F1xx_HAL_Driver/Src/stm32f1xx_hal_dma.c ****           hdma->Init.Mode                | hdma->Init.Priority;
 151              		.loc 1 215 0
 152 0044 5C69     		ldr	r4, [r3, #20]
 153 0046 2243     		orrs	r2, r2, r4
 216:Drivers/STM32F1xx_HAL_Driver/Src/stm32f1xx_hal_dma.c **** 
 154              		.loc 1 216 0
 155 0048 9C69     		ldr	r4, [r3, #24]
 215:Drivers/STM32F1xx_HAL_Driver/Src/stm32f1xx_hal_dma.c ****           hdma->Init.Mode                | hdma->Init.Priority;
 156              		.loc 1 215 0
 157 004a 2243     		orrs	r2, r2, r4
 216:Drivers/STM32F1xx_HAL_Driver/Src/stm32f1xx_hal_dma.c **** 
 158              		.loc 1 216 0
 159 004c DC69     		ldr	r4, [r3, #28]
 160 004e 2243     		orrs	r2, r2, r4
 213:Drivers/STM32F1xx_HAL_Driver/Src/stm32f1xx_hal_dma.c ****           hdma->Init.PeriphInc           | hdma->Init.MemInc           |
 161              		.loc 1 213 0
 162 0050 0A43     		orrs	r2, r2, r1
 163              	.LVL10:
 219:Drivers/STM32F1xx_HAL_Driver/Src/stm32f1xx_hal_dma.c **** 
 164              		.loc 1 219 0
 165 0052 0260     		str	r2, [r0]
 223:Drivers/STM32F1xx_HAL_Driver/Src/stm32f1xx_hal_dma.c ****   hdma->XferHalfCpltCallback = NULL;
 166              		.loc 1 223 0
 167 0054 0020     		movs	r0, #0
 168 0056 9862     		str	r0, [r3, #40]
 224:Drivers/STM32F1xx_HAL_Driver/Src/stm32f1xx_hal_dma.c ****   hdma->XferErrorCallback = NULL;
 169              		.loc 1 224 0
 170 0058 D862     		str	r0, [r3, #44]
 225:Drivers/STM32F1xx_HAL_Driver/Src/stm32f1xx_hal_dma.c ****   hdma->XferAbortCallback = NULL;
ARM GAS  /tmp/ccqJv02S.s 			page 20


 171              		.loc 1 225 0
 172 005a 1863     		str	r0, [r3, #48]
 226:Drivers/STM32F1xx_HAL_Driver/Src/stm32f1xx_hal_dma.c **** 
 173              		.loc 1 226 0
 174 005c 5863     		str	r0, [r3, #52]
 229:Drivers/STM32F1xx_HAL_Driver/Src/stm32f1xx_hal_dma.c **** 
 175              		.loc 1 229 0
 176 005e 9863     		str	r0, [r3, #56]
 232:Drivers/STM32F1xx_HAL_Driver/Src/stm32f1xx_hal_dma.c ****   /* Allocate lock resource and initialize it */
 177              		.loc 1 232 0
 178 0060 0122     		movs	r2, #1
 179              	.LVL11:
 180 0062 83F82120 		strb	r2, [r3, #33]
 234:Drivers/STM32F1xx_HAL_Driver/Src/stm32f1xx_hal_dma.c ****   
 181              		.loc 1 234 0
 182 0066 83F82000 		strb	r0, [r3, #32]
 237:Drivers/STM32F1xx_HAL_Driver/Src/stm32f1xx_hal_dma.c **** 
 183              		.loc 1 237 0
 184 006a 10BC     		pop	{r4}
 185              	.LCFI4:
 186              		.cfi_remember_state
 187              		.cfi_restore 4
 188              		.cfi_def_cfa_offset 0
 189 006c 7047     		bx	lr
 190              	.LVL12:
 191              	.L8:
 192              	.LCFI5:
 193              		.cfi_restore_state
 192:Drivers/STM32F1xx_HAL_Driver/Src/stm32f1xx_hal_dma.c ****     hdma->DmaBaseAddress = DMA2;
 194              		.loc 1 192 0
 195 006e 0A4A     		ldr	r2, .L15+16
 196 0070 0A44     		add	r2, r2, r1
 197 0072 0749     		ldr	r1, .L15+8
 198 0074 A1FB0212 		umull	r1, r2, r1, r2
 199 0078 1209     		lsrs	r2, r2, #4
 200 007a 9200     		lsls	r2, r2, #2
 201 007c 0264     		str	r2, [r0, #64]
 193:Drivers/STM32F1xx_HAL_Driver/Src/stm32f1xx_hal_dma.c ****   }
 202              		.loc 1 193 0
 203 007e 074A     		ldr	r2, .L15+20
 204 0080 C263     		str	r2, [r0, #60]
 205 0082 CFE7     		b	.L9
 206              	.L10:
 207              	.LCFI6:
 208              		.cfi_def_cfa_offset 0
 209              		.cfi_restore 4
 168:Drivers/STM32F1xx_HAL_Driver/Src/stm32f1xx_hal_dma.c ****   }
 210              		.loc 1 168 0
 211 0084 0120     		movs	r0, #1
 212              	.LVL13:
 213 0086 7047     		bx	lr
 214              	.L16:
 215              		.align	2
 216              	.L15:
 217 0088 07040240 		.word	1073873927
 218 008c F8FFFDBF 		.word	-1073872904
 219 0090 CDCCCCCC 		.word	-858993459
ARM GAS  /tmp/ccqJv02S.s 			page 21


 220 0094 00000240 		.word	1073872896
 221 0098 F8FBFDBF 		.word	-1073873928
 222 009c 00040240 		.word	1073873920
 223              		.cfi_endproc
 224              	.LFE64:
 226              		.section	.text.HAL_DMA_DeInit,"ax",%progbits
 227              		.align	1
 228              		.global	HAL_DMA_DeInit
 229              		.syntax unified
 230              		.thumb
 231              		.thumb_func
 232              		.fpu softvfp
 234              	HAL_DMA_DeInit:
 235              	.LFB65:
 246:Drivers/STM32F1xx_HAL_Driver/Src/stm32f1xx_hal_dma.c ****   /* Check the DMA handle allocation */
 236              		.loc 1 246 0
 237              		.cfi_startproc
 238              		@ args = 0, pretend = 0, frame = 0
 239              		@ frame_needed = 0, uses_anonymous_args = 0
 240              		@ link register save eliminated.
 241              	.LVL14:
 248:Drivers/STM32F1xx_HAL_Driver/Src/stm32f1xx_hal_dma.c ****   {
 242              		.loc 1 248 0
 243 0000 0346     		mov	r3, r0
 244 0002 0028     		cmp	r0, #0
 245 0004 32D0     		beq	.L21
 257:Drivers/STM32F1xx_HAL_Driver/Src/stm32f1xx_hal_dma.c **** 
 246              		.loc 1 257 0
 247 0006 0168     		ldr	r1, [r0]
 248 0008 0A68     		ldr	r2, [r1]
 249 000a 22F00102 		bic	r2, r2, #1
 250 000e 0A60     		str	r2, [r1]
 260:Drivers/STM32F1xx_HAL_Driver/Src/stm32f1xx_hal_dma.c **** 
 251              		.loc 1 260 0
 252 0010 0168     		ldr	r1, [r0]
 253 0012 0022     		movs	r2, #0
 254 0014 0A60     		str	r2, [r1]
 263:Drivers/STM32F1xx_HAL_Driver/Src/stm32f1xx_hal_dma.c **** 
 255              		.loc 1 263 0
 256 0016 0168     		ldr	r1, [r0]
 257 0018 4A60     		str	r2, [r1, #4]
 266:Drivers/STM32F1xx_HAL_Driver/Src/stm32f1xx_hal_dma.c **** 
 258              		.loc 1 266 0
 259 001a 0168     		ldr	r1, [r0]
 260 001c 8A60     		str	r2, [r1, #8]
 269:Drivers/STM32F1xx_HAL_Driver/Src/stm32f1xx_hal_dma.c **** 
 261              		.loc 1 269 0
 262 001e 0168     		ldr	r1, [r0]
 263 0020 CA60     		str	r2, [r1, #12]
 273:Drivers/STM32F1xx_HAL_Driver/Src/stm32f1xx_hal_dma.c ****   {
 264              		.loc 1 273 0
 265 0022 0168     		ldr	r1, [r0]
 266 0024 124A     		ldr	r2, .L22
 267 0026 9142     		cmp	r1, r2
 268 0028 15D8     		bhi	.L19
 276:Drivers/STM32F1xx_HAL_Driver/Src/stm32f1xx_hal_dma.c ****     hdma->DmaBaseAddress = DMA1;
 269              		.loc 1 276 0
ARM GAS  /tmp/ccqJv02S.s 			page 22


 270 002a 124A     		ldr	r2, .L22+4
 271 002c 0A44     		add	r2, r2, r1
 272 002e 1249     		ldr	r1, .L22+8
 273 0030 A1FB0212 		umull	r1, r2, r1, r2
 274 0034 1209     		lsrs	r2, r2, #4
 275 0036 9200     		lsls	r2, r2, #2
 276 0038 0264     		str	r2, [r0, #64]
 277:Drivers/STM32F1xx_HAL_Driver/Src/stm32f1xx_hal_dma.c ****   }
 277              		.loc 1 277 0
 278 003a 104A     		ldr	r2, .L22+12
 279 003c C263     		str	r2, [r0, #60]
 280              	.L20:
 292:Drivers/STM32F1xx_HAL_Driver/Src/stm32f1xx_hal_dma.c **** 
 281              		.loc 1 292 0
 282 003e D96B     		ldr	r1, [r3, #60]
 283 0040 186C     		ldr	r0, [r3, #64]
 284              	.LVL15:
 285 0042 0122     		movs	r2, #1
 286 0044 8240     		lsls	r2, r2, r0
 287 0046 4A60     		str	r2, [r1, #4]
 295:Drivers/STM32F1xx_HAL_Driver/Src/stm32f1xx_hal_dma.c **** 
 288              		.loc 1 295 0
 289 0048 0020     		movs	r0, #0
 290 004a 9863     		str	r0, [r3, #56]
 298:Drivers/STM32F1xx_HAL_Driver/Src/stm32f1xx_hal_dma.c **** 
 291              		.loc 1 298 0
 292 004c 83F82100 		strb	r0, [r3, #33]
 301:Drivers/STM32F1xx_HAL_Driver/Src/stm32f1xx_hal_dma.c **** 
 293              		.loc 1 301 0
 294 0050 83F82000 		strb	r0, [r3, #32]
 303:Drivers/STM32F1xx_HAL_Driver/Src/stm32f1xx_hal_dma.c **** }
 295              		.loc 1 303 0
 296 0054 7047     		bx	lr
 297              	.LVL16:
 298              	.L19:
 282:Drivers/STM32F1xx_HAL_Driver/Src/stm32f1xx_hal_dma.c ****     hdma->DmaBaseAddress = DMA2;
 299              		.loc 1 282 0
 300 0056 0A4A     		ldr	r2, .L22+16
 301 0058 0A44     		add	r2, r2, r1
 302 005a 0749     		ldr	r1, .L22+8
 303 005c A1FB0212 		umull	r1, r2, r1, r2
 304 0060 1209     		lsrs	r2, r2, #4
 305 0062 9200     		lsls	r2, r2, #2
 306 0064 0264     		str	r2, [r0, #64]
 283:Drivers/STM32F1xx_HAL_Driver/Src/stm32f1xx_hal_dma.c ****   }
 307              		.loc 1 283 0
 308 0066 074A     		ldr	r2, .L22+20
 309 0068 C263     		str	r2, [r0, #60]
 310 006a E8E7     		b	.L20
 311              	.L21:
 250:Drivers/STM32F1xx_HAL_Driver/Src/stm32f1xx_hal_dma.c ****   }
 312              		.loc 1 250 0
 313 006c 0120     		movs	r0, #1
 314              	.LVL17:
 304:Drivers/STM32F1xx_HAL_Driver/Src/stm32f1xx_hal_dma.c **** 
 315              		.loc 1 304 0
 316 006e 7047     		bx	lr
ARM GAS  /tmp/ccqJv02S.s 			page 23


 317              	.L23:
 318              		.align	2
 319              	.L22:
 320 0070 07040240 		.word	1073873927
 321 0074 F8FFFDBF 		.word	-1073872904
 322 0078 CDCCCCCC 		.word	-858993459
 323 007c 00000240 		.word	1073872896
 324 0080 F8FBFDBF 		.word	-1073873928
 325 0084 00040240 		.word	1073873920
 326              		.cfi_endproc
 327              	.LFE65:
 329              		.section	.text.HAL_DMA_Start,"ax",%progbits
 330              		.align	1
 331              		.global	HAL_DMA_Start
 332              		.syntax unified
 333              		.thumb
 334              		.thumb_func
 335              		.fpu softvfp
 337              	HAL_DMA_Start:
 338              	.LFB66:
 339:Drivers/STM32F1xx_HAL_Driver/Src/stm32f1xx_hal_dma.c ****   HAL_StatusTypeDef status = HAL_OK;
 339              		.loc 1 339 0
 340              		.cfi_startproc
 341              		@ args = 0, pretend = 0, frame = 0
 342              		@ frame_needed = 0, uses_anonymous_args = 0
 343              	.LVL18:
 344 0000 70B5     		push	{r4, r5, r6, lr}
 345              	.LCFI7:
 346              		.cfi_def_cfa_offset 16
 347              		.cfi_offset 4, -16
 348              		.cfi_offset 5, -12
 349              		.cfi_offset 6, -8
 350              		.cfi_offset 14, -4
 351              	.LVL19:
 346:Drivers/STM32F1xx_HAL_Driver/Src/stm32f1xx_hal_dma.c **** 
 352              		.loc 1 346 0
 353 0002 90F82040 		ldrb	r4, [r0, #32]	@ zero_extendqisi2
 354 0006 012C     		cmp	r4, #1
 355 0008 20D0     		beq	.L27
 346:Drivers/STM32F1xx_HAL_Driver/Src/stm32f1xx_hal_dma.c **** 
 356              		.loc 1 346 0 is_stmt 0 discriminator 2
 357 000a 0124     		movs	r4, #1
 358 000c 80F82040 		strb	r4, [r0, #32]
 348:Drivers/STM32F1xx_HAL_Driver/Src/stm32f1xx_hal_dma.c ****   {
 359              		.loc 1 348 0 is_stmt 1 discriminator 2
 360 0010 90F82140 		ldrb	r4, [r0, #33]	@ zero_extendqisi2
 361 0014 012C     		cmp	r4, #1
 362 0016 04D0     		beq	.L29
 366:Drivers/STM32F1xx_HAL_Driver/Src/stm32f1xx_hal_dma.c ****    status = HAL_BUSY;
 363              		.loc 1 366 0
 364 0018 0023     		movs	r3, #0
 365              	.LVL20:
 366 001a 80F82030 		strb	r3, [r0, #32]
 367              	.LVL21:
 367:Drivers/STM32F1xx_HAL_Driver/Src/stm32f1xx_hal_dma.c ****   }  
 368              		.loc 1 367 0
 369 001e 0220     		movs	r0, #2
ARM GAS  /tmp/ccqJv02S.s 			page 24


 370              	.LVL22:
 371 0020 70BD     		pop	{r4, r5, r6, pc}
 372              	.LVL23:
 373              	.L29:
 374 0022 0446     		mov	r4, r0
 351:Drivers/STM32F1xx_HAL_Driver/Src/stm32f1xx_hal_dma.c ****     hdma->ErrorCode = HAL_DMA_ERROR_NONE;
 375              		.loc 1 351 0
 376 0024 0220     		movs	r0, #2
 377              	.LVL24:
 378 0026 84F82100 		strb	r0, [r4, #33]
 352:Drivers/STM32F1xx_HAL_Driver/Src/stm32f1xx_hal_dma.c ****             
 379              		.loc 1 352 0
 380 002a 0025     		movs	r5, #0
 381 002c A563     		str	r5, [r4, #56]
 355:Drivers/STM32F1xx_HAL_Driver/Src/stm32f1xx_hal_dma.c ****     
 382              		.loc 1 355 0
 383 002e 2668     		ldr	r6, [r4]
 384 0030 3068     		ldr	r0, [r6]
 385 0032 20F00100 		bic	r0, r0, #1
 386 0036 3060     		str	r0, [r6]
 358:Drivers/STM32F1xx_HAL_Driver/Src/stm32f1xx_hal_dma.c ****     
 387              		.loc 1 358 0
 388 0038 2046     		mov	r0, r4
 389 003a FFF7FEFF 		bl	DMA_SetConfig
 390              	.LVL25:
 361:Drivers/STM32F1xx_HAL_Driver/Src/stm32f1xx_hal_dma.c ****   }
 391              		.loc 1 361 0
 392 003e 2268     		ldr	r2, [r4]
 393 0040 1368     		ldr	r3, [r2]
 394 0042 43F00103 		orr	r3, r3, #1
 395 0046 1360     		str	r3, [r2]
 340:Drivers/STM32F1xx_HAL_Driver/Src/stm32f1xx_hal_dma.c **** 
 396              		.loc 1 340 0
 397 0048 2846     		mov	r0, r5
 398 004a 70BD     		pop	{r4, r5, r6, pc}
 399              	.LVL26:
 400              	.L27:
 346:Drivers/STM32F1xx_HAL_Driver/Src/stm32f1xx_hal_dma.c **** 
 401              		.loc 1 346 0
 402 004c 0220     		movs	r0, #2
 403              	.LVL27:
 370:Drivers/STM32F1xx_HAL_Driver/Src/stm32f1xx_hal_dma.c **** 
 404              		.loc 1 370 0
 405 004e 70BD     		pop	{r4, r5, r6, pc}
 406              		.cfi_endproc
 407              	.LFE66:
 409              		.section	.text.HAL_DMA_Start_IT,"ax",%progbits
 410              		.align	1
 411              		.global	HAL_DMA_Start_IT
 412              		.syntax unified
 413              		.thumb
 414              		.thumb_func
 415              		.fpu softvfp
 417              	HAL_DMA_Start_IT:
 418              	.LFB67:
 382:Drivers/STM32F1xx_HAL_Driver/Src/stm32f1xx_hal_dma.c ****   HAL_StatusTypeDef status = HAL_OK;
 419              		.loc 1 382 0
ARM GAS  /tmp/ccqJv02S.s 			page 25


 420              		.cfi_startproc
 421              		@ args = 0, pretend = 0, frame = 0
 422              		@ frame_needed = 0, uses_anonymous_args = 0
 423              	.LVL28:
 424 0000 38B5     		push	{r3, r4, r5, lr}
 425              	.LCFI8:
 426              		.cfi_def_cfa_offset 16
 427              		.cfi_offset 3, -16
 428              		.cfi_offset 4, -12
 429              		.cfi_offset 5, -8
 430              		.cfi_offset 14, -4
 431              	.LVL29:
 389:Drivers/STM32F1xx_HAL_Driver/Src/stm32f1xx_hal_dma.c ****   
 432              		.loc 1 389 0
 433 0002 90F82040 		ldrb	r4, [r0, #32]	@ zero_extendqisi2
 434 0006 012C     		cmp	r4, #1
 435 0008 32D0     		beq	.L35
 389:Drivers/STM32F1xx_HAL_Driver/Src/stm32f1xx_hal_dma.c ****   
 436              		.loc 1 389 0 is_stmt 0 discriminator 2
 437 000a 0124     		movs	r4, #1
 438 000c 80F82040 		strb	r4, [r0, #32]
 391:Drivers/STM32F1xx_HAL_Driver/Src/stm32f1xx_hal_dma.c ****   {
 439              		.loc 1 391 0 is_stmt 1 discriminator 2
 440 0010 90F82140 		ldrb	r4, [r0, #33]	@ zero_extendqisi2
 441 0014 012C     		cmp	r4, #1
 442 0016 04D0     		beq	.L37
 421:Drivers/STM32F1xx_HAL_Driver/Src/stm32f1xx_hal_dma.c **** 
 443              		.loc 1 421 0
 444 0018 0023     		movs	r3, #0
 445              	.LVL30:
 446 001a 80F82030 		strb	r3, [r0, #32]
 447              	.LVL31:
 424:Drivers/STM32F1xx_HAL_Driver/Src/stm32f1xx_hal_dma.c ****   }    
 448              		.loc 1 424 0
 449 001e 0220     		movs	r0, #2
 450              	.LVL32:
 451 0020 38BD     		pop	{r3, r4, r5, pc}
 452              	.LVL33:
 453              	.L37:
 454 0022 0446     		mov	r4, r0
 394:Drivers/STM32F1xx_HAL_Driver/Src/stm32f1xx_hal_dma.c ****     hdma->ErrorCode = HAL_DMA_ERROR_NONE;
 455              		.loc 1 394 0
 456 0024 0220     		movs	r0, #2
 457              	.LVL34:
 458 0026 84F82100 		strb	r0, [r4, #33]
 395:Drivers/STM32F1xx_HAL_Driver/Src/stm32f1xx_hal_dma.c ****     
 459              		.loc 1 395 0
 460 002a 0020     		movs	r0, #0
 461 002c A063     		str	r0, [r4, #56]
 398:Drivers/STM32F1xx_HAL_Driver/Src/stm32f1xx_hal_dma.c ****     
 462              		.loc 1 398 0
 463 002e 2568     		ldr	r5, [r4]
 464 0030 2868     		ldr	r0, [r5]
 465 0032 20F00100 		bic	r0, r0, #1
 466 0036 2860     		str	r0, [r5]
 401:Drivers/STM32F1xx_HAL_Driver/Src/stm32f1xx_hal_dma.c ****     
 467              		.loc 1 401 0
ARM GAS  /tmp/ccqJv02S.s 			page 26


 468 0038 2046     		mov	r0, r4
 469 003a FFF7FEFF 		bl	DMA_SetConfig
 470              	.LVL35:
 405:Drivers/STM32F1xx_HAL_Driver/Src/stm32f1xx_hal_dma.c ****     {
 471              		.loc 1 405 0
 472 003e E36A     		ldr	r3, [r4, #44]
 473 0040 5BB1     		cbz	r3, .L33
 408:Drivers/STM32F1xx_HAL_Driver/Src/stm32f1xx_hal_dma.c ****     }
 474              		.loc 1 408 0
 475 0042 2268     		ldr	r2, [r4]
 476 0044 1368     		ldr	r3, [r2]
 477 0046 43F00E03 		orr	r3, r3, #14
 478 004a 1360     		str	r3, [r2]
 479              	.L34:
 416:Drivers/STM32F1xx_HAL_Driver/Src/stm32f1xx_hal_dma.c ****   }
 480              		.loc 1 416 0
 481 004c 2268     		ldr	r2, [r4]
 482 004e 1368     		ldr	r3, [r2]
 483 0050 43F00103 		orr	r3, r3, #1
 484 0054 1360     		str	r3, [r2]
 383:Drivers/STM32F1xx_HAL_Driver/Src/stm32f1xx_hal_dma.c **** 
 485              		.loc 1 383 0
 486 0056 0020     		movs	r0, #0
 487 0058 38BD     		pop	{r3, r4, r5, pc}
 488              	.LVL36:
 489              	.L33:
 412:Drivers/STM32F1xx_HAL_Driver/Src/stm32f1xx_hal_dma.c ****       __HAL_DMA_ENABLE_IT(hdma, (DMA_IT_TC | DMA_IT_TE));
 490              		.loc 1 412 0
 491 005a 2268     		ldr	r2, [r4]
 492 005c 1368     		ldr	r3, [r2]
 493 005e 23F00403 		bic	r3, r3, #4
 494 0062 1360     		str	r3, [r2]
 413:Drivers/STM32F1xx_HAL_Driver/Src/stm32f1xx_hal_dma.c ****     }
 495              		.loc 1 413 0
 496 0064 2268     		ldr	r2, [r4]
 497 0066 1368     		ldr	r3, [r2]
 498 0068 43F00A03 		orr	r3, r3, #10
 499 006c 1360     		str	r3, [r2]
 500 006e EDE7     		b	.L34
 501              	.LVL37:
 502              	.L35:
 389:Drivers/STM32F1xx_HAL_Driver/Src/stm32f1xx_hal_dma.c ****   
 503              		.loc 1 389 0
 504 0070 0220     		movs	r0, #2
 505              	.LVL38:
 427:Drivers/STM32F1xx_HAL_Driver/Src/stm32f1xx_hal_dma.c **** 
 506              		.loc 1 427 0
 507 0072 38BD     		pop	{r3, r4, r5, pc}
 508              		.cfi_endproc
 509              	.LFE67:
 511              		.section	.text.HAL_DMA_Abort,"ax",%progbits
 512              		.align	1
 513              		.global	HAL_DMA_Abort
 514              		.syntax unified
 515              		.thumb
 516              		.thumb_func
 517              		.fpu softvfp
ARM GAS  /tmp/ccqJv02S.s 			page 27


 519              	HAL_DMA_Abort:
 520              	.LFB68:
 436:Drivers/STM32F1xx_HAL_Driver/Src/stm32f1xx_hal_dma.c ****   HAL_StatusTypeDef status = HAL_OK;
 521              		.loc 1 436 0
 522              		.cfi_startproc
 523              		@ args = 0, pretend = 0, frame = 0
 524              		@ frame_needed = 0, uses_anonymous_args = 0
 525              		@ link register save eliminated.
 526              	.LVL39:
 527 0000 0346     		mov	r3, r0
 528              	.LVL40:
 440:Drivers/STM32F1xx_HAL_Driver/Src/stm32f1xx_hal_dma.c ****     
 529              		.loc 1 440 0
 530 0002 0168     		ldr	r1, [r0]
 531 0004 0A68     		ldr	r2, [r1]
 532 0006 22F00E02 		bic	r2, r2, #14
 533 000a 0A60     		str	r2, [r1]
 443:Drivers/STM32F1xx_HAL_Driver/Src/stm32f1xx_hal_dma.c ****     
 534              		.loc 1 443 0
 535 000c 0168     		ldr	r1, [r0]
 536 000e 0A68     		ldr	r2, [r1]
 537 0010 22F00102 		bic	r2, r2, #1
 538 0014 0A60     		str	r2, [r1]
 446:Drivers/STM32F1xx_HAL_Driver/Src/stm32f1xx_hal_dma.c **** 
 539              		.loc 1 446 0
 540 0016 C06B     		ldr	r0, [r0, #60]
 541              	.LVL41:
 542 0018 1A6C     		ldr	r2, [r3, #64]
 543 001a 0121     		movs	r1, #1
 544 001c 01FA02F2 		lsl	r2, r1, r2
 545 0020 4260     		str	r2, [r0, #4]
 449:Drivers/STM32F1xx_HAL_Driver/Src/stm32f1xx_hal_dma.c **** 
 546              		.loc 1 449 0
 547 0022 83F82110 		strb	r1, [r3, #33]
 452:Drivers/STM32F1xx_HAL_Driver/Src/stm32f1xx_hal_dma.c ****   
 548              		.loc 1 452 0
 549 0026 0020     		movs	r0, #0
 550 0028 83F82000 		strb	r0, [r3, #32]
 455:Drivers/STM32F1xx_HAL_Driver/Src/stm32f1xx_hal_dma.c **** 
 551              		.loc 1 455 0
 552 002c 7047     		bx	lr
 553              		.cfi_endproc
 554              	.LFE68:
 556              		.section	.text.HAL_DMA_Abort_IT,"ax",%progbits
 557              		.align	1
 558              		.global	HAL_DMA_Abort_IT
 559              		.syntax unified
 560              		.thumb
 561              		.thumb_func
 562              		.fpu softvfp
 564              	HAL_DMA_Abort_IT:
 565              	.LFB69:
 464:Drivers/STM32F1xx_HAL_Driver/Src/stm32f1xx_hal_dma.c ****   HAL_StatusTypeDef status = HAL_OK;
 566              		.loc 1 464 0
 567              		.cfi_startproc
 568              		@ args = 0, pretend = 0, frame = 0
 569              		@ frame_needed = 0, uses_anonymous_args = 0
ARM GAS  /tmp/ccqJv02S.s 			page 28


 570              	.LVL42:
 571 0000 08B5     		push	{r3, lr}
 572              	.LCFI9:
 573              		.cfi_def_cfa_offset 8
 574              		.cfi_offset 3, -8
 575              		.cfi_offset 14, -4
 576              	.LVL43:
 467:Drivers/STM32F1xx_HAL_Driver/Src/stm32f1xx_hal_dma.c ****   {
 577              		.loc 1 467 0
 578 0002 90F82130 		ldrb	r3, [r0, #33]	@ zero_extendqisi2
 579 0006 022B     		cmp	r3, #2
 580 0008 03D0     		beq	.L40
 470:Drivers/STM32F1xx_HAL_Driver/Src/stm32f1xx_hal_dma.c ****         
 581              		.loc 1 470 0
 582 000a 0423     		movs	r3, #4
 583 000c 8363     		str	r3, [r0, #56]
 584              	.LVL44:
 472:Drivers/STM32F1xx_HAL_Driver/Src/stm32f1xx_hal_dma.c ****   }
 585              		.loc 1 472 0
 586 000e 0120     		movs	r0, #1
 587              	.LVL45:
 588 0010 08BD     		pop	{r3, pc}
 589              	.LVL46:
 590              	.L40:
 477:Drivers/STM32F1xx_HAL_Driver/Src/stm32f1xx_hal_dma.c **** 
 591              		.loc 1 477 0
 592 0012 0268     		ldr	r2, [r0]
 593 0014 1368     		ldr	r3, [r2]
 594 0016 23F00E03 		bic	r3, r3, #14
 595 001a 1360     		str	r3, [r2]
 480:Drivers/STM32F1xx_HAL_Driver/Src/stm32f1xx_hal_dma.c **** 
 596              		.loc 1 480 0
 597 001c 0268     		ldr	r2, [r0]
 598 001e 1368     		ldr	r3, [r2]
 599 0020 23F00103 		bic	r3, r3, #1
 600 0024 1360     		str	r3, [r2]
 483:Drivers/STM32F1xx_HAL_Driver/Src/stm32f1xx_hal_dma.c **** 
 601              		.loc 1 483 0
 602 0026 0368     		ldr	r3, [r0]
 603 0028 484A     		ldr	r2, .L71
 604 002a 9342     		cmp	r3, r2
 605 002c 48D9     		bls	.L42
 483:Drivers/STM32F1xx_HAL_Driver/Src/stm32f1xx_hal_dma.c **** 
 606              		.loc 1 483 0 is_stmt 0 discriminator 1
 607 002e 783A     		subs	r2, r2, #120
 608 0030 9342     		cmp	r3, r2
 609 0032 21D0     		beq	.L46
 483:Drivers/STM32F1xx_HAL_Driver/Src/stm32f1xx_hal_dma.c **** 
 610              		.loc 1 483 0 discriminator 3
 611 0034 1432     		adds	r2, r2, #20
 612 0036 9342     		cmp	r3, r2
 613 0038 2DD0     		beq	.L47
 483:Drivers/STM32F1xx_HAL_Driver/Src/stm32f1xx_hal_dma.c **** 
 614              		.loc 1 483 0 discriminator 5
 615 003a 1432     		adds	r2, r2, #20
 616 003c 9342     		cmp	r3, r2
 617 003e 2CD0     		beq	.L48
ARM GAS  /tmp/ccqJv02S.s 			page 29


 483:Drivers/STM32F1xx_HAL_Driver/Src/stm32f1xx_hal_dma.c **** 
 618              		.loc 1 483 0 discriminator 7
 619 0040 1432     		adds	r2, r2, #20
 620 0042 9342     		cmp	r3, r2
 621 0044 2CD0     		beq	.L49
 483:Drivers/STM32F1xx_HAL_Driver/Src/stm32f1xx_hal_dma.c **** 
 622              		.loc 1 483 0 discriminator 9
 623 0046 1432     		adds	r2, r2, #20
 624 0048 9342     		cmp	r3, r2
 625 004a 2CD0     		beq	.L50
 483:Drivers/STM32F1xx_HAL_Driver/Src/stm32f1xx_hal_dma.c **** 
 626              		.loc 1 483 0 discriminator 11
 627 004c 1432     		adds	r2, r2, #20
 628 004e 9342     		cmp	r3, r2
 629 0050 2CD0     		beq	.L51
 483:Drivers/STM32F1xx_HAL_Driver/Src/stm32f1xx_hal_dma.c **** 
 630              		.loc 1 483 0 discriminator 15
 631 0052 02F56772 		add	r2, r2, #924
 632 0056 9342     		cmp	r3, r2
 633 0058 2BD0     		beq	.L52
 483:Drivers/STM32F1xx_HAL_Driver/Src/stm32f1xx_hal_dma.c **** 
 634              		.loc 1 483 0 discriminator 17
 635 005a 1432     		adds	r2, r2, #20
 636 005c 9342     		cmp	r3, r2
 637 005e 2AD0     		beq	.L53
 483:Drivers/STM32F1xx_HAL_Driver/Src/stm32f1xx_hal_dma.c **** 
 638              		.loc 1 483 0 discriminator 19
 639 0060 1432     		adds	r2, r2, #20
 640 0062 9342     		cmp	r3, r2
 641 0064 29D0     		beq	.L54
 483:Drivers/STM32F1xx_HAL_Driver/Src/stm32f1xx_hal_dma.c **** 
 642              		.loc 1 483 0 discriminator 21
 643 0066 1432     		adds	r2, r2, #20
 644 0068 9342     		cmp	r3, r2
 645 006a 02D0     		beq	.L69
 483:Drivers/STM32F1xx_HAL_Driver/Src/stm32f1xx_hal_dma.c **** 
 646              		.loc 1 483 0
 647 006c 4FF48032 		mov	r2, #65536
 648 0070 03E0     		b	.L43
 649              	.L69:
 650 0072 4FF48052 		mov	r2, #4096
 651 0076 00E0     		b	.L43
 652              	.L46:
 653 0078 0122     		movs	r2, #1
 654              	.L43:
 483:Drivers/STM32F1xx_HAL_Driver/Src/stm32f1xx_hal_dma.c **** 
 655              		.loc 1 483 0 discriminator 46
 656 007a 354B     		ldr	r3, .L71+4
 657 007c 5A60     		str	r2, [r3, #4]
 658              	.L44:
 486:Drivers/STM32F1xx_HAL_Driver/Src/stm32f1xx_hal_dma.c **** 
 659              		.loc 1 486 0 is_stmt 1
 660 007e 0123     		movs	r3, #1
 661 0080 80F82130 		strb	r3, [r0, #33]
 489:Drivers/STM32F1xx_HAL_Driver/Src/stm32f1xx_hal_dma.c **** 
 662              		.loc 1 489 0
 663 0084 0023     		movs	r3, #0
ARM GAS  /tmp/ccqJv02S.s 			page 30


 664 0086 80F82030 		strb	r3, [r0, #32]
 492:Drivers/STM32F1xx_HAL_Driver/Src/stm32f1xx_hal_dma.c ****     {
 665              		.loc 1 492 0
 666 008a 436B     		ldr	r3, [r0, #52]
 667 008c 002B     		cmp	r3, #0
 668 008e 5BD0     		beq	.L67
 494:Drivers/STM32F1xx_HAL_Driver/Src/stm32f1xx_hal_dma.c ****     } 
 669              		.loc 1 494 0
 670 0090 9847     		blx	r3
 671              	.LVL47:
 465:Drivers/STM32F1xx_HAL_Driver/Src/stm32f1xx_hal_dma.c ****   
 672              		.loc 1 465 0
 673 0092 0020     		movs	r0, #0
 674 0094 08BD     		pop	{r3, pc}
 675              	.LVL48:
 676              	.L47:
 483:Drivers/STM32F1xx_HAL_Driver/Src/stm32f1xx_hal_dma.c **** 
 677              		.loc 1 483 0
 678 0096 1022     		movs	r2, #16
 679 0098 EFE7     		b	.L43
 680              	.L48:
 681 009a 4FF48072 		mov	r2, #256
 682 009e ECE7     		b	.L43
 683              	.L49:
 684 00a0 4FF48052 		mov	r2, #4096
 685 00a4 E9E7     		b	.L43
 686              	.L50:
 687 00a6 4FF48032 		mov	r2, #65536
 688 00aa E6E7     		b	.L43
 689              	.L51:
 690 00ac 4FF48012 		mov	r2, #1048576
 691 00b0 E3E7     		b	.L43
 692              	.L52:
 693 00b2 0122     		movs	r2, #1
 694 00b4 E1E7     		b	.L43
 695              	.L53:
 696 00b6 1022     		movs	r2, #16
 697 00b8 DFE7     		b	.L43
 698              	.L54:
 699 00ba 4FF48072 		mov	r2, #256
 700 00be DCE7     		b	.L43
 701              	.L42:
 483:Drivers/STM32F1xx_HAL_Driver/Src/stm32f1xx_hal_dma.c **** 
 702              		.loc 1 483 0 is_stmt 0 discriminator 2
 703 00c0 244A     		ldr	r2, .L71+8
 704 00c2 9342     		cmp	r3, r2
 705 00c4 24D0     		beq	.L56
 483:Drivers/STM32F1xx_HAL_Driver/Src/stm32f1xx_hal_dma.c **** 
 706              		.loc 1 483 0 discriminator 47
 707 00c6 1432     		adds	r2, r2, #20
 708 00c8 9342     		cmp	r3, r2
 709 00ca 25D0     		beq	.L57
 483:Drivers/STM32F1xx_HAL_Driver/Src/stm32f1xx_hal_dma.c **** 
 710              		.loc 1 483 0 discriminator 49
 711 00cc 1432     		adds	r2, r2, #20
 712 00ce 9342     		cmp	r3, r2
 713 00d0 24D0     		beq	.L58
ARM GAS  /tmp/ccqJv02S.s 			page 31


 483:Drivers/STM32F1xx_HAL_Driver/Src/stm32f1xx_hal_dma.c **** 
 714              		.loc 1 483 0 discriminator 51
 715 00d2 1432     		adds	r2, r2, #20
 716 00d4 9342     		cmp	r3, r2
 717 00d6 24D0     		beq	.L59
 483:Drivers/STM32F1xx_HAL_Driver/Src/stm32f1xx_hal_dma.c **** 
 718              		.loc 1 483 0 discriminator 53
 719 00d8 1432     		adds	r2, r2, #20
 720 00da 9342     		cmp	r3, r2
 721 00dc 24D0     		beq	.L60
 483:Drivers/STM32F1xx_HAL_Driver/Src/stm32f1xx_hal_dma.c **** 
 722              		.loc 1 483 0 discriminator 55
 723 00de 1432     		adds	r2, r2, #20
 724 00e0 9342     		cmp	r3, r2
 725 00e2 24D0     		beq	.L61
 483:Drivers/STM32F1xx_HAL_Driver/Src/stm32f1xx_hal_dma.c **** 
 726              		.loc 1 483 0 discriminator 57
 727 00e4 1432     		adds	r2, r2, #20
 728 00e6 9342     		cmp	r3, r2
 729 00e8 24D0     		beq	.L62
 483:Drivers/STM32F1xx_HAL_Driver/Src/stm32f1xx_hal_dma.c **** 
 730              		.loc 1 483 0 discriminator 59
 731 00ea 02F56272 		add	r2, r2, #904
 732 00ee 9342     		cmp	r3, r2
 733 00f0 23D0     		beq	.L63
 483:Drivers/STM32F1xx_HAL_Driver/Src/stm32f1xx_hal_dma.c **** 
 734              		.loc 1 483 0 discriminator 61
 735 00f2 1432     		adds	r2, r2, #20
 736 00f4 9342     		cmp	r3, r2
 737 00f6 22D0     		beq	.L64
 483:Drivers/STM32F1xx_HAL_Driver/Src/stm32f1xx_hal_dma.c **** 
 738              		.loc 1 483 0 discriminator 63
 739 00f8 1432     		adds	r2, r2, #20
 740 00fa 9342     		cmp	r3, r2
 741 00fc 21D0     		beq	.L65
 483:Drivers/STM32F1xx_HAL_Driver/Src/stm32f1xx_hal_dma.c **** 
 742              		.loc 1 483 0 discriminator 65
 743 00fe 1432     		adds	r2, r2, #20
 744 0100 9342     		cmp	r3, r2
 745 0102 02D0     		beq	.L70
 483:Drivers/STM32F1xx_HAL_Driver/Src/stm32f1xx_hal_dma.c **** 
 746              		.loc 1 483 0
 747 0104 4FF48032 		mov	r2, #65536
 748 0108 03E0     		b	.L45
 749              	.L70:
 750 010a 4FF48052 		mov	r2, #4096
 751 010e 00E0     		b	.L45
 752              	.L56:
 753 0110 0122     		movs	r2, #1
 754              	.L45:
 483:Drivers/STM32F1xx_HAL_Driver/Src/stm32f1xx_hal_dma.c **** 
 755              		.loc 1 483 0 discriminator 90
 756 0112 114B     		ldr	r3, .L71+12
 757 0114 5A60     		str	r2, [r3, #4]
 758 0116 B2E7     		b	.L44
 759              	.L57:
 483:Drivers/STM32F1xx_HAL_Driver/Src/stm32f1xx_hal_dma.c **** 
ARM GAS  /tmp/ccqJv02S.s 			page 32


 760              		.loc 1 483 0
 761 0118 1022     		movs	r2, #16
 762 011a FAE7     		b	.L45
 763              	.L58:
 764 011c 4FF48072 		mov	r2, #256
 765 0120 F7E7     		b	.L45
 766              	.L59:
 767 0122 4FF48052 		mov	r2, #4096
 768 0126 F4E7     		b	.L45
 769              	.L60:
 770 0128 4FF48032 		mov	r2, #65536
 771 012c F1E7     		b	.L45
 772              	.L61:
 773 012e 4FF48012 		mov	r2, #1048576
 774 0132 EEE7     		b	.L45
 775              	.L62:
 776 0134 4FF08072 		mov	r2, #16777216
 777 0138 EBE7     		b	.L45
 778              	.L63:
 779 013a 0122     		movs	r2, #1
 780 013c E9E7     		b	.L45
 781              	.L64:
 782 013e 1022     		movs	r2, #16
 783 0140 E7E7     		b	.L45
 784              	.L65:
 785 0142 4FF48072 		mov	r2, #256
 786 0146 E4E7     		b	.L45
 787              	.L67:
 465:Drivers/STM32F1xx_HAL_Driver/Src/stm32f1xx_hal_dma.c ****   
 788              		.loc 1 465 0 is_stmt 1
 789 0148 0020     		movs	r0, #0
 790              	.LVL49:
 498:Drivers/STM32F1xx_HAL_Driver/Src/stm32f1xx_hal_dma.c **** 
 791              		.loc 1 498 0
 792 014a 08BD     		pop	{r3, pc}
 793              	.L72:
 794              		.align	2
 795              	.L71:
 796 014c 80000240 		.word	1073873024
 797 0150 00040240 		.word	1073873920
 798 0154 08000240 		.word	1073872904
 799 0158 00000240 		.word	1073872896
 800              		.cfi_endproc
 801              	.LFE69:
 803              		.section	.text.HAL_DMA_PollForTransfer,"ax",%progbits
 804              		.align	1
 805              		.global	HAL_DMA_PollForTransfer
 806              		.syntax unified
 807              		.thumb
 808              		.thumb_func
 809              		.fpu softvfp
 811              	HAL_DMA_PollForTransfer:
 812              	.LFB70:
 509:Drivers/STM32F1xx_HAL_Driver/Src/stm32f1xx_hal_dma.c ****   uint32_t temp;
 813              		.loc 1 509 0
 814              		.cfi_startproc
 815              		@ args = 0, pretend = 0, frame = 0
ARM GAS  /tmp/ccqJv02S.s 			page 33


 816              		@ frame_needed = 0, uses_anonymous_args = 0
 817              	.LVL50:
 513:Drivers/STM32F1xx_HAL_Driver/Src/stm32f1xx_hal_dma.c ****   {
 818              		.loc 1 513 0
 819 0000 90F82130 		ldrb	r3, [r0, #33]	@ zero_extendqisi2
 820 0004 022B     		cmp	r3, #2
 821 0006 06D0     		beq	.L74
 516:Drivers/STM32F1xx_HAL_Driver/Src/stm32f1xx_hal_dma.c ****     __HAL_UNLOCK(hdma);
 822              		.loc 1 516 0
 823 0008 0423     		movs	r3, #4
 824 000a 8363     		str	r3, [r0, #56]
 517:Drivers/STM32F1xx_HAL_Driver/Src/stm32f1xx_hal_dma.c ****     return HAL_ERROR;
 825              		.loc 1 517 0
 826 000c 0023     		movs	r3, #0
 827 000e 80F82030 		strb	r3, [r0, #32]
 518:Drivers/STM32F1xx_HAL_Driver/Src/stm32f1xx_hal_dma.c ****   }
 828              		.loc 1 518 0
 829 0012 0120     		movs	r0, #1
 830              	.LVL51:
 831 0014 7047     		bx	lr
 832              	.LVL52:
 833              	.L74:
 509:Drivers/STM32F1xx_HAL_Driver/Src/stm32f1xx_hal_dma.c ****   uint32_t temp;
 834              		.loc 1 509 0
 835 0016 2DE9F041 		push	{r4, r5, r6, r7, r8, lr}
 836              	.LCFI10:
 837              		.cfi_def_cfa_offset 24
 838              		.cfi_offset 4, -24
 839              		.cfi_offset 5, -20
 840              		.cfi_offset 6, -16
 841              		.cfi_offset 7, -12
 842              		.cfi_offset 8, -8
 843              		.cfi_offset 14, -4
 522:Drivers/STM32F1xx_HAL_Driver/Src/stm32f1xx_hal_dma.c ****   {
 844              		.loc 1 522 0
 845 001a 0368     		ldr	r3, [r0]
 846 001c 1C68     		ldr	r4, [r3]
 847 001e 14F0200F 		tst	r4, #32
 848 0022 25D1     		bne	.L187
 529:Drivers/STM32F1xx_HAL_Driver/Src/stm32f1xx_hal_dma.c ****   {
 849              		.loc 1 529 0
 850 0024 69BB     		cbnz	r1, .L77
 532:Drivers/STM32F1xx_HAL_Driver/Src/stm32f1xx_hal_dma.c ****   }
 851              		.loc 1 532 0
 852 0026 AE4C     		ldr	r4, .L199
 853 0028 A342     		cmp	r3, r4
 854 002a 52D0     		beq	.L99
 532:Drivers/STM32F1xx_HAL_Driver/Src/stm32f1xx_hal_dma.c ****   }
 855              		.loc 1 532 0 is_stmt 0 discriminator 1
 856 002c 1434     		adds	r4, r4, #20
 857 002e A342     		cmp	r3, r4
 858 0030 57D0     		beq	.L100
 532:Drivers/STM32F1xx_HAL_Driver/Src/stm32f1xx_hal_dma.c ****   }
 859              		.loc 1 532 0 discriminator 3
 860 0032 1434     		adds	r4, r4, #20
 861 0034 A342     		cmp	r3, r4
 862 0036 56D0     		beq	.L101
ARM GAS  /tmp/ccqJv02S.s 			page 34


 532:Drivers/STM32F1xx_HAL_Driver/Src/stm32f1xx_hal_dma.c ****   }
 863              		.loc 1 532 0 discriminator 5
 864 0038 1434     		adds	r4, r4, #20
 865 003a A342     		cmp	r3, r4
 866 003c 56D0     		beq	.L102
 532:Drivers/STM32F1xx_HAL_Driver/Src/stm32f1xx_hal_dma.c ****   }
 867              		.loc 1 532 0 discriminator 7
 868 003e 1434     		adds	r4, r4, #20
 869 0040 A342     		cmp	r3, r4
 870 0042 56D0     		beq	.L103
 532:Drivers/STM32F1xx_HAL_Driver/Src/stm32f1xx_hal_dma.c ****   }
 871              		.loc 1 532 0 discriminator 9
 872 0044 1434     		adds	r4, r4, #20
 873 0046 A342     		cmp	r3, r4
 874 0048 56D0     		beq	.L104
 532:Drivers/STM32F1xx_HAL_Driver/Src/stm32f1xx_hal_dma.c ****   }
 875              		.loc 1 532 0 discriminator 11
 876 004a 1434     		adds	r4, r4, #20
 877 004c A342     		cmp	r3, r4
 878 004e 56D0     		beq	.L105
 532:Drivers/STM32F1xx_HAL_Driver/Src/stm32f1xx_hal_dma.c ****   }
 879              		.loc 1 532 0 discriminator 13
 880 0050 04F56274 		add	r4, r4, #904
 881 0054 A342     		cmp	r3, r4
 882 0056 55D0     		beq	.L106
 532:Drivers/STM32F1xx_HAL_Driver/Src/stm32f1xx_hal_dma.c ****   }
 883              		.loc 1 532 0 discriminator 15
 884 0058 1434     		adds	r4, r4, #20
 885 005a A342     		cmp	r3, r4
 886 005c 54D0     		beq	.L107
 532:Drivers/STM32F1xx_HAL_Driver/Src/stm32f1xx_hal_dma.c ****   }
 887              		.loc 1 532 0 discriminator 17
 888 005e 1434     		adds	r4, r4, #20
 889 0060 A342     		cmp	r3, r4
 890 0062 53D0     		beq	.L108
 532:Drivers/STM32F1xx_HAL_Driver/Src/stm32f1xx_hal_dma.c ****   }
 891              		.loc 1 532 0 discriminator 19
 892 0064 1434     		adds	r4, r4, #20
 893 0066 A342     		cmp	r3, r4
 894 0068 08D0     		beq	.L188
 532:Drivers/STM32F1xx_HAL_Driver/Src/stm32f1xx_hal_dma.c ****   }
 895              		.loc 1 532 0
 896 006a 4FF40036 		mov	r6, #131072
 897 006e 31E0     		b	.L78
 898              	.L187:
 524:Drivers/STM32F1xx_HAL_Driver/Src/stm32f1xx_hal_dma.c ****     return HAL_ERROR;
 899              		.loc 1 524 0 is_stmt 1
 900 0070 4FF48073 		mov	r3, #256
 901 0074 8363     		str	r3, [r0, #56]
 525:Drivers/STM32F1xx_HAL_Driver/Src/stm32f1xx_hal_dma.c ****   }
 902              		.loc 1 525 0
 903 0076 0120     		movs	r0, #1
 904              	.LVL53:
 905 0078 BDE8F081 		pop	{r4, r5, r6, r7, r8, pc}
 906              	.LVL54:
 907              	.L188:
 532:Drivers/STM32F1xx_HAL_Driver/Src/stm32f1xx_hal_dma.c ****   }
ARM GAS  /tmp/ccqJv02S.s 			page 35


 908              		.loc 1 532 0
 909 007c 4FF40056 		mov	r6, #8192
 910 0080 28E0     		b	.L78
 911              	.L77:
 537:Drivers/STM32F1xx_HAL_Driver/Src/stm32f1xx_hal_dma.c ****   }
 912              		.loc 1 537 0
 913 0082 974C     		ldr	r4, .L199
 914 0084 A342     		cmp	r3, r4
 915 0086 44D0     		beq	.L110
 537:Drivers/STM32F1xx_HAL_Driver/Src/stm32f1xx_hal_dma.c ****   }
 916              		.loc 1 537 0 is_stmt 0 discriminator 1
 917 0088 1434     		adds	r4, r4, #20
 918 008a A342     		cmp	r3, r4
 919 008c 43D0     		beq	.L111
 537:Drivers/STM32F1xx_HAL_Driver/Src/stm32f1xx_hal_dma.c ****   }
 920              		.loc 1 537 0 discriminator 3
 921 008e 1434     		adds	r4, r4, #20
 922 0090 A342     		cmp	r3, r4
 923 0092 42D0     		beq	.L112
 537:Drivers/STM32F1xx_HAL_Driver/Src/stm32f1xx_hal_dma.c ****   }
 924              		.loc 1 537 0 discriminator 5
 925 0094 1434     		adds	r4, r4, #20
 926 0096 A342     		cmp	r3, r4
 927 0098 42D0     		beq	.L113
 537:Drivers/STM32F1xx_HAL_Driver/Src/stm32f1xx_hal_dma.c ****   }
 928              		.loc 1 537 0 discriminator 7
 929 009a 1434     		adds	r4, r4, #20
 930 009c A342     		cmp	r3, r4
 931 009e 42D0     		beq	.L114
 537:Drivers/STM32F1xx_HAL_Driver/Src/stm32f1xx_hal_dma.c ****   }
 932              		.loc 1 537 0 discriminator 9
 933 00a0 1434     		adds	r4, r4, #20
 934 00a2 A342     		cmp	r3, r4
 935 00a4 42D0     		beq	.L115
 537:Drivers/STM32F1xx_HAL_Driver/Src/stm32f1xx_hal_dma.c ****   }
 936              		.loc 1 537 0 discriminator 11
 937 00a6 1434     		adds	r4, r4, #20
 938 00a8 A342     		cmp	r3, r4
 939 00aa 42D0     		beq	.L116
 537:Drivers/STM32F1xx_HAL_Driver/Src/stm32f1xx_hal_dma.c ****   }
 940              		.loc 1 537 0 discriminator 13
 941 00ac 04F56274 		add	r4, r4, #904
 942 00b0 A342     		cmp	r3, r4
 943 00b2 41D0     		beq	.L117
 537:Drivers/STM32F1xx_HAL_Driver/Src/stm32f1xx_hal_dma.c ****   }
 944              		.loc 1 537 0 discriminator 15
 945 00b4 1434     		adds	r4, r4, #20
 946 00b6 A342     		cmp	r3, r4
 947 00b8 40D0     		beq	.L118
 537:Drivers/STM32F1xx_HAL_Driver/Src/stm32f1xx_hal_dma.c ****   }
 948              		.loc 1 537 0 discriminator 17
 949 00ba 1434     		adds	r4, r4, #20
 950 00bc A342     		cmp	r3, r4
 951 00be 3FD0     		beq	.L119
 537:Drivers/STM32F1xx_HAL_Driver/Src/stm32f1xx_hal_dma.c ****   }
 952              		.loc 1 537 0 discriminator 19
 953 00c0 1434     		adds	r4, r4, #20
ARM GAS  /tmp/ccqJv02S.s 			page 36


 954 00c2 A342     		cmp	r3, r4
 955 00c4 02D0     		beq	.L189
 537:Drivers/STM32F1xx_HAL_Driver/Src/stm32f1xx_hal_dma.c ****   }
 956              		.loc 1 537 0
 957 00c6 4FF48026 		mov	r6, #262144
 958 00ca 03E0     		b	.L78
 959              	.L189:
 960 00cc 4FF48046 		mov	r6, #16384
 961 00d0 00E0     		b	.L78
 962              	.L99:
 532:Drivers/STM32F1xx_HAL_Driver/Src/stm32f1xx_hal_dma.c ****   }
 963              		.loc 1 532 0 is_stmt 1
 964 00d2 0226     		movs	r6, #2
 965              	.L78:
 966 00d4 1546     		mov	r5, r2
 967 00d6 0F46     		mov	r7, r1
 968 00d8 0446     		mov	r4, r0
 969              	.LVL55:
 541:Drivers/STM32F1xx_HAL_Driver/Src/stm32f1xx_hal_dma.c **** 
 970              		.loc 1 541 0
 971 00da FFF7FEFF 		bl	HAL_GetTick
 972              	.LVL56:
 973 00de 8046     		mov	r8, r0
 974              	.LVL57:
 543:Drivers/STM32F1xx_HAL_Driver/Src/stm32f1xx_hal_dma.c ****   {
 975              		.loc 1 543 0
 976 00e0 40E0     		b	.L85
 977              	.LVL58:
 978              	.L100:
 532:Drivers/STM32F1xx_HAL_Driver/Src/stm32f1xx_hal_dma.c ****   }
 979              		.loc 1 532 0
 980 00e2 2026     		movs	r6, #32
 981 00e4 F6E7     		b	.L78
 982              	.L101:
 983 00e6 4FF40076 		mov	r6, #512
 984 00ea F3E7     		b	.L78
 985              	.L102:
 986 00ec 4FF40056 		mov	r6, #8192
 987 00f0 F0E7     		b	.L78
 988              	.L103:
 989 00f2 4FF40036 		mov	r6, #131072
 990 00f6 EDE7     		b	.L78
 991              	.L104:
 992 00f8 4FF40016 		mov	r6, #2097152
 993 00fc EAE7     		b	.L78
 994              	.L105:
 995 00fe 4FF00076 		mov	r6, #33554432
 996 0102 E7E7     		b	.L78
 997              	.L106:
 998 0104 0226     		movs	r6, #2
 999 0106 E5E7     		b	.L78
 1000              	.L107:
 1001 0108 2026     		movs	r6, #32
 1002 010a E3E7     		b	.L78
 1003              	.L108:
 1004 010c 4FF40076 		mov	r6, #512
 1005 0110 E0E7     		b	.L78
ARM GAS  /tmp/ccqJv02S.s 			page 37


 1006              	.L110:
 537:Drivers/STM32F1xx_HAL_Driver/Src/stm32f1xx_hal_dma.c ****   }
 1007              		.loc 1 537 0
 1008 0112 0426     		movs	r6, #4
 1009 0114 DEE7     		b	.L78
 1010              	.L111:
 1011 0116 4026     		movs	r6, #64
 1012 0118 DCE7     		b	.L78
 1013              	.L112:
 1014 011a 4FF48066 		mov	r6, #1024
 1015 011e D9E7     		b	.L78
 1016              	.L113:
 1017 0120 4FF48046 		mov	r6, #16384
 1018 0124 D6E7     		b	.L78
 1019              	.L114:
 1020 0126 4FF48026 		mov	r6, #262144
 1021 012a D3E7     		b	.L78
 1022              	.L115:
 1023 012c 4FF48006 		mov	r6, #4194304
 1024 0130 D0E7     		b	.L78
 1025              	.L116:
 1026 0132 4FF08066 		mov	r6, #67108864
 1027 0136 CDE7     		b	.L78
 1028              	.L117:
 1029 0138 0426     		movs	r6, #4
 1030 013a CBE7     		b	.L78
 1031              	.L118:
 1032 013c 4026     		movs	r6, #64
 1033 013e C9E7     		b	.L78
 1034              	.L119:
 1035 0140 4FF48066 		mov	r6, #1024
 1036 0144 C6E7     		b	.L78
 1037              	.LVL59:
 1038              	.L193:
 545:Drivers/STM32F1xx_HAL_Driver/Src/stm32f1xx_hal_dma.c ****     {
 1039              		.loc 1 545 0
 1040 0146 4FF40043 		mov	r3, #32768
 1041 014a 00E0     		b	.L81
 1042              	.L121:
 1043 014c 0823     		movs	r3, #8
 1044              	.L81:
 545:Drivers/STM32F1xx_HAL_Driver/Src/stm32f1xx_hal_dma.c ****     {
 1045              		.loc 1 545 0 is_stmt 0 discriminator 46
 1046 014e 1342     		tst	r3, r2
 1047 0150 14BF     		ite	ne
 1048 0152 0123     		movne	r3, #1
 1049 0154 0023     		moveq	r3, #0
 1050              	.L82:
 545:Drivers/STM32F1xx_HAL_Driver/Src/stm32f1xx_hal_dma.c ****     {
 1051              		.loc 1 545 0 discriminator 92
 1052 0156 002B     		cmp	r3, #0
 1053 0158 40F09780 		bne	.L190
 564:Drivers/STM32F1xx_HAL_Driver/Src/stm32f1xx_hal_dma.c ****     {
 1054              		.loc 1 564 0 is_stmt 1
 1055 015c B5F1FF3F 		cmp	r5, #-1
 1056 0160 40F0A380 		bne	.L191
 1057              	.L85:
ARM GAS  /tmp/ccqJv02S.s 			page 38


 543:Drivers/STM32F1xx_HAL_Driver/Src/stm32f1xx_hal_dma.c ****   {
 1058              		.loc 1 543 0
 1059 0164 2368     		ldr	r3, [r4]
 1060 0166 5F48     		ldr	r0, .L199+4
 1061 0168 8342     		cmp	r3, r0
 1062 016a 40F2B280 		bls	.L87
 543:Drivers/STM32F1xx_HAL_Driver/Src/stm32f1xx_hal_dma.c ****   {
 1063              		.loc 1 543 0 is_stmt 0 discriminator 1
 1064 016e 5E4A     		ldr	r2, .L199+8
 1065 0170 1268     		ldr	r2, [r2]
 1066 0172 1642     		tst	r6, r2
 1067 0174 0CBF     		ite	eq
 1068 0176 0120     		moveq	r0, #1
 1069 0178 0020     		movne	r0, #0
 1070              	.L88:
 543:Drivers/STM32F1xx_HAL_Driver/Src/stm32f1xx_hal_dma.c ****   {
 1071              		.loc 1 543 0 discriminator 4
 1072 017a 0028     		cmp	r0, #0
 1073 017c 00F0B880 		beq	.L192
 545:Drivers/STM32F1xx_HAL_Driver/Src/stm32f1xx_hal_dma.c ****     {
 1074              		.loc 1 545 0 is_stmt 1
 1075 0180 584A     		ldr	r2, .L199+4
 1076 0182 9342     		cmp	r3, r2
 1077 0184 39D9     		bls	.L80
 545:Drivers/STM32F1xx_HAL_Driver/Src/stm32f1xx_hal_dma.c ****     {
 1078              		.loc 1 545 0 is_stmt 0 discriminator 1
 1079 0186 02F56072 		add	r2, r2, #896
 1080 018a 1268     		ldr	r2, [r2]
 1081 018c 5449     		ldr	r1, .L199
 1082 018e 8B42     		cmp	r3, r1
 1083 0190 DCD0     		beq	.L121
 545:Drivers/STM32F1xx_HAL_Driver/Src/stm32f1xx_hal_dma.c ****     {
 1084              		.loc 1 545 0 discriminator 3
 1085 0192 1431     		adds	r1, r1, #20
 1086 0194 8B42     		cmp	r3, r1
 1087 0196 1BD0     		beq	.L122
 545:Drivers/STM32F1xx_HAL_Driver/Src/stm32f1xx_hal_dma.c ****     {
 1088              		.loc 1 545 0 discriminator 5
 1089 0198 1431     		adds	r1, r1, #20
 1090 019a 8B42     		cmp	r3, r1
 1091 019c 1AD0     		beq	.L123
 545:Drivers/STM32F1xx_HAL_Driver/Src/stm32f1xx_hal_dma.c ****     {
 1092              		.loc 1 545 0 discriminator 7
 1093 019e 1431     		adds	r1, r1, #20
 1094 01a0 8B42     		cmp	r3, r1
 1095 01a2 1AD0     		beq	.L124
 545:Drivers/STM32F1xx_HAL_Driver/Src/stm32f1xx_hal_dma.c ****     {
 1096              		.loc 1 545 0 discriminator 9
 1097 01a4 1431     		adds	r1, r1, #20
 1098 01a6 8B42     		cmp	r3, r1
 1099 01a8 1AD0     		beq	.L125
 545:Drivers/STM32F1xx_HAL_Driver/Src/stm32f1xx_hal_dma.c ****     {
 1100              		.loc 1 545 0 discriminator 11
 1101 01aa 1431     		adds	r1, r1, #20
 1102 01ac 8B42     		cmp	r3, r1
 1103 01ae 1AD0     		beq	.L126
 545:Drivers/STM32F1xx_HAL_Driver/Src/stm32f1xx_hal_dma.c ****     {
ARM GAS  /tmp/ccqJv02S.s 			page 39


 1104              		.loc 1 545 0 discriminator 15
 1105 01b0 01F56771 		add	r1, r1, #924
 1106 01b4 8B42     		cmp	r3, r1
 1107 01b6 19D0     		beq	.L127
 545:Drivers/STM32F1xx_HAL_Driver/Src/stm32f1xx_hal_dma.c ****     {
 1108              		.loc 1 545 0 discriminator 17
 1109 01b8 1431     		adds	r1, r1, #20
 1110 01ba 8B42     		cmp	r3, r1
 1111 01bc 18D0     		beq	.L128
 545:Drivers/STM32F1xx_HAL_Driver/Src/stm32f1xx_hal_dma.c ****     {
 1112              		.loc 1 545 0 discriminator 19
 1113 01be 1431     		adds	r1, r1, #20
 1114 01c0 8B42     		cmp	r3, r1
 1115 01c2 17D0     		beq	.L129
 545:Drivers/STM32F1xx_HAL_Driver/Src/stm32f1xx_hal_dma.c ****     {
 1116              		.loc 1 545 0 discriminator 21
 1117 01c4 1431     		adds	r1, r1, #20
 1118 01c6 8B42     		cmp	r3, r1
 1119 01c8 BDD0     		beq	.L193
 545:Drivers/STM32F1xx_HAL_Driver/Src/stm32f1xx_hal_dma.c ****     {
 1120              		.loc 1 545 0
 1121 01ca 4FF40023 		mov	r3, #524288
 1122 01ce BEE7     		b	.L81
 1123              	.L122:
 1124 01d0 8023     		movs	r3, #128
 1125 01d2 BCE7     		b	.L81
 1126              	.L123:
 1127 01d4 4FF40063 		mov	r3, #2048
 1128 01d8 B9E7     		b	.L81
 1129              	.L124:
 1130 01da 4FF40043 		mov	r3, #32768
 1131 01de B6E7     		b	.L81
 1132              	.L125:
 1133 01e0 4FF40023 		mov	r3, #524288
 1134 01e4 B3E7     		b	.L81
 1135              	.L126:
 1136 01e6 4FF40003 		mov	r3, #8388608
 1137 01ea B0E7     		b	.L81
 1138              	.L127:
 1139 01ec 0823     		movs	r3, #8
 1140 01ee AEE7     		b	.L81
 1141              	.L128:
 1142 01f0 8023     		movs	r3, #128
 1143 01f2 ACE7     		b	.L81
 1144              	.L129:
 1145 01f4 4FF40063 		mov	r3, #2048
 1146 01f8 A9E7     		b	.L81
 1147              	.L80:
 545:Drivers/STM32F1xx_HAL_Driver/Src/stm32f1xx_hal_dma.c ****     {
 1148              		.loc 1 545 0 discriminator 2
 1149 01fa 3C4A     		ldr	r2, .L199+12
 1150 01fc 1268     		ldr	r2, [r2]
 1151 01fe 3849     		ldr	r1, .L199
 1152 0200 8B42     		cmp	r3, r1
 1153 0202 24D0     		beq	.L131
 545:Drivers/STM32F1xx_HAL_Driver/Src/stm32f1xx_hal_dma.c ****     {
 1154              		.loc 1 545 0 discriminator 48
ARM GAS  /tmp/ccqJv02S.s 			page 40


 1155 0204 1431     		adds	r1, r1, #20
 1156 0206 8B42     		cmp	r3, r1
 1157 0208 27D0     		beq	.L132
 545:Drivers/STM32F1xx_HAL_Driver/Src/stm32f1xx_hal_dma.c ****     {
 1158              		.loc 1 545 0 discriminator 50
 1159 020a 1431     		adds	r1, r1, #20
 1160 020c 8B42     		cmp	r3, r1
 1161 020e 26D0     		beq	.L133
 545:Drivers/STM32F1xx_HAL_Driver/Src/stm32f1xx_hal_dma.c ****     {
 1162              		.loc 1 545 0 discriminator 52
 1163 0210 1431     		adds	r1, r1, #20
 1164 0212 8B42     		cmp	r3, r1
 1165 0214 26D0     		beq	.L134
 545:Drivers/STM32F1xx_HAL_Driver/Src/stm32f1xx_hal_dma.c ****     {
 1166              		.loc 1 545 0 discriminator 54
 1167 0216 1431     		adds	r1, r1, #20
 1168 0218 8B42     		cmp	r3, r1
 1169 021a 26D0     		beq	.L135
 545:Drivers/STM32F1xx_HAL_Driver/Src/stm32f1xx_hal_dma.c ****     {
 1170              		.loc 1 545 0 discriminator 56
 1171 021c 1431     		adds	r1, r1, #20
 1172 021e 8B42     		cmp	r3, r1
 1173 0220 26D0     		beq	.L136
 545:Drivers/STM32F1xx_HAL_Driver/Src/stm32f1xx_hal_dma.c ****     {
 1174              		.loc 1 545 0 discriminator 58
 1175 0222 1431     		adds	r1, r1, #20
 1176 0224 8B42     		cmp	r3, r1
 1177 0226 26D0     		beq	.L137
 545:Drivers/STM32F1xx_HAL_Driver/Src/stm32f1xx_hal_dma.c ****     {
 1178              		.loc 1 545 0 discriminator 60
 1179 0228 01F56271 		add	r1, r1, #904
 1180 022c 8B42     		cmp	r3, r1
 1181 022e 25D0     		beq	.L138
 545:Drivers/STM32F1xx_HAL_Driver/Src/stm32f1xx_hal_dma.c ****     {
 1182              		.loc 1 545 0 discriminator 62
 1183 0230 1431     		adds	r1, r1, #20
 1184 0232 8B42     		cmp	r3, r1
 1185 0234 24D0     		beq	.L139
 545:Drivers/STM32F1xx_HAL_Driver/Src/stm32f1xx_hal_dma.c ****     {
 1186              		.loc 1 545 0 discriminator 64
 1187 0236 1431     		adds	r1, r1, #20
 1188 0238 8B42     		cmp	r3, r1
 1189 023a 23D0     		beq	.L140
 545:Drivers/STM32F1xx_HAL_Driver/Src/stm32f1xx_hal_dma.c ****     {
 1190              		.loc 1 545 0 discriminator 66
 1191 023c 1431     		adds	r1, r1, #20
 1192 023e 8B42     		cmp	r3, r1
 1193 0240 02D0     		beq	.L194
 545:Drivers/STM32F1xx_HAL_Driver/Src/stm32f1xx_hal_dma.c ****     {
 1194              		.loc 1 545 0
 1195 0242 4FF40023 		mov	r3, #524288
 1196 0246 03E0     		b	.L83
 1197              	.L194:
 1198 0248 4FF40043 		mov	r3, #32768
 1199 024c 00E0     		b	.L83
 1200              	.L131:
 1201 024e 0823     		movs	r3, #8
ARM GAS  /tmp/ccqJv02S.s 			page 41


 1202              	.L83:
 545:Drivers/STM32F1xx_HAL_Driver/Src/stm32f1xx_hal_dma.c ****     {
 1203              		.loc 1 545 0 discriminator 91
 1204 0250 1342     		tst	r3, r2
 1205 0252 14BF     		ite	ne
 1206 0254 0123     		movne	r3, #1
 1207 0256 0023     		moveq	r3, #0
 1208 0258 7DE7     		b	.L82
 1209              	.L132:
 545:Drivers/STM32F1xx_HAL_Driver/Src/stm32f1xx_hal_dma.c ****     {
 1210              		.loc 1 545 0
 1211 025a 8023     		movs	r3, #128
 1212 025c F8E7     		b	.L83
 1213              	.L133:
 1214 025e 4FF40063 		mov	r3, #2048
 1215 0262 F5E7     		b	.L83
 1216              	.L134:
 1217 0264 4FF40043 		mov	r3, #32768
 1218 0268 F2E7     		b	.L83
 1219              	.L135:
 1220 026a 4FF40023 		mov	r3, #524288
 1221 026e EFE7     		b	.L83
 1222              	.L136:
 1223 0270 4FF40003 		mov	r3, #8388608
 1224 0274 ECE7     		b	.L83
 1225              	.L137:
 1226 0276 4FF00063 		mov	r3, #134217728
 1227 027a E9E7     		b	.L83
 1228              	.L138:
 1229 027c 0823     		movs	r3, #8
 1230 027e E7E7     		b	.L83
 1231              	.L139:
 1232 0280 8023     		movs	r3, #128
 1233 0282 E5E7     		b	.L83
 1234              	.L140:
 1235 0284 4FF40063 		mov	r3, #2048
 1236 0288 E2E7     		b	.L83
 1237              	.L190:
 550:Drivers/STM32F1xx_HAL_Driver/Src/stm32f1xx_hal_dma.c **** 
 1238              		.loc 1 550 0 is_stmt 1
 1239 028a E26B     		ldr	r2, [r4, #60]
 1240 028c 236C     		ldr	r3, [r4, #64]
 1241 028e 0120     		movs	r0, #1
 1242 0290 00FA03F3 		lsl	r3, r0, r3
 1243 0294 5360     		str	r3, [r2, #4]
 553:Drivers/STM32F1xx_HAL_Driver/Src/stm32f1xx_hal_dma.c **** 
 1244              		.loc 1 553 0
 1245 0296 A36B     		ldr	r3, [r4, #56]
 1246 0298 0343     		orrs	r3, r3, r0
 1247 029a A363     		str	r3, [r4, #56]
 556:Drivers/STM32F1xx_HAL_Driver/Src/stm32f1xx_hal_dma.c **** 
 1248              		.loc 1 556 0
 1249 029c 84F82100 		strb	r0, [r4, #33]
 559:Drivers/STM32F1xx_HAL_Driver/Src/stm32f1xx_hal_dma.c **** 
 1250              		.loc 1 559 0
 1251 02a0 0023     		movs	r3, #0
 1252 02a2 84F82030 		strb	r3, [r4, #32]
ARM GAS  /tmp/ccqJv02S.s 			page 42


 561:Drivers/STM32F1xx_HAL_Driver/Src/stm32f1xx_hal_dma.c ****     }
 1253              		.loc 1 561 0
 1254 02a6 BDE8F081 		pop	{r4, r5, r6, r7, r8, pc}
 1255              	.LVL60:
 1256              	.L191:
 566:Drivers/STM32F1xx_HAL_Driver/Src/stm32f1xx_hal_dma.c ****       {
 1257              		.loc 1 566 0
 1258 02aa 35B1     		cbz	r5, .L86
 566:Drivers/STM32F1xx_HAL_Driver/Src/stm32f1xx_hal_dma.c ****       {
 1259              		.loc 1 566 0 is_stmt 0 discriminator 1
 1260 02ac FFF7FEFF 		bl	HAL_GetTick
 1261              	.LVL61:
 1262 02b0 A0EB0800 		sub	r0, r0, r8
 1263 02b4 8542     		cmp	r5, r0
 1264 02b6 BFF455AF 		bcs	.L85
 1265              	.L86:
 569:Drivers/STM32F1xx_HAL_Driver/Src/stm32f1xx_hal_dma.c **** 
 1266              		.loc 1 569 0 is_stmt 1
 1267 02ba A36B     		ldr	r3, [r4, #56]
 1268 02bc 43F02003 		orr	r3, r3, #32
 1269 02c0 A363     		str	r3, [r4, #56]
 572:Drivers/STM32F1xx_HAL_Driver/Src/stm32f1xx_hal_dma.c **** 
 1270              		.loc 1 572 0
 1271 02c2 0120     		movs	r0, #1
 1272 02c4 84F82100 		strb	r0, [r4, #33]
 575:Drivers/STM32F1xx_HAL_Driver/Src/stm32f1xx_hal_dma.c **** 
 1273              		.loc 1 575 0
 1274 02c8 0023     		movs	r3, #0
 1275 02ca 84F82030 		strb	r3, [r4, #32]
 577:Drivers/STM32F1xx_HAL_Driver/Src/stm32f1xx_hal_dma.c ****       }
 1276              		.loc 1 577 0
 1277 02ce BDE8F081 		pop	{r4, r5, r6, r7, r8, pc}
 1278              	.LVL62:
 1279              	.L87:
 543:Drivers/STM32F1xx_HAL_Driver/Src/stm32f1xx_hal_dma.c ****   {
 1280              		.loc 1 543 0 discriminator 2
 1281 02d2 064A     		ldr	r2, .L199+12
 1282 02d4 1268     		ldr	r2, [r2]
 1283 02d6 1642     		tst	r6, r2
 1284 02d8 0CBF     		ite	eq
 1285 02da 0120     		moveq	r0, #1
 1286 02dc 0020     		movne	r0, #0
 1287 02de 4CE7     		b	.L88
 1288              	.L200:
 1289              		.align	2
 1290              	.L199:
 1291 02e0 08000240 		.word	1073872904
 1292 02e4 80000240 		.word	1073873024
 1293 02e8 00040240 		.word	1073873920
 1294 02ec 00000240 		.word	1073872896
 1295              	.L192:
 582:Drivers/STM32F1xx_HAL_Driver/Src/stm32f1xx_hal_dma.c ****   {
 1296              		.loc 1 582 0
 1297 02f0 002F     		cmp	r7, #0
 1298 02f2 40F08C80 		bne	.L90
 585:Drivers/STM32F1xx_HAL_Driver/Src/stm32f1xx_hal_dma.c **** 
 1299              		.loc 1 585 0
ARM GAS  /tmp/ccqJv02S.s 			page 43


 1300 02f6 884A     		ldr	r2, .L201
 1301 02f8 9342     		cmp	r3, r2
 1302 02fa 44D9     		bls	.L91
 585:Drivers/STM32F1xx_HAL_Driver/Src/stm32f1xx_hal_dma.c **** 
 1303              		.loc 1 585 0 is_stmt 0 discriminator 1
 1304 02fc 783A     		subs	r2, r2, #120
 1305 02fe 9342     		cmp	r3, r2
 1306 0300 21D0     		beq	.L142
 585:Drivers/STM32F1xx_HAL_Driver/Src/stm32f1xx_hal_dma.c **** 
 1307              		.loc 1 585 0 discriminator 3
 1308 0302 1432     		adds	r2, r2, #20
 1309 0304 9342     		cmp	r3, r2
 1310 0306 29D0     		beq	.L143
 585:Drivers/STM32F1xx_HAL_Driver/Src/stm32f1xx_hal_dma.c **** 
 1311              		.loc 1 585 0 discriminator 5
 1312 0308 1432     		adds	r2, r2, #20
 1313 030a 9342     		cmp	r3, r2
 1314 030c 28D0     		beq	.L144
 585:Drivers/STM32F1xx_HAL_Driver/Src/stm32f1xx_hal_dma.c **** 
 1315              		.loc 1 585 0 discriminator 7
 1316 030e 1432     		adds	r2, r2, #20
 1317 0310 9342     		cmp	r3, r2
 1318 0312 28D0     		beq	.L145
 585:Drivers/STM32F1xx_HAL_Driver/Src/stm32f1xx_hal_dma.c **** 
 1319              		.loc 1 585 0 discriminator 9
 1320 0314 1432     		adds	r2, r2, #20
 1321 0316 9342     		cmp	r3, r2
 1322 0318 28D0     		beq	.L146
 585:Drivers/STM32F1xx_HAL_Driver/Src/stm32f1xx_hal_dma.c **** 
 1323              		.loc 1 585 0 discriminator 11
 1324 031a 1432     		adds	r2, r2, #20
 1325 031c 9342     		cmp	r3, r2
 1326 031e 28D0     		beq	.L147
 585:Drivers/STM32F1xx_HAL_Driver/Src/stm32f1xx_hal_dma.c **** 
 1327              		.loc 1 585 0 discriminator 15
 1328 0320 02F56772 		add	r2, r2, #924
 1329 0324 9342     		cmp	r3, r2
 1330 0326 27D0     		beq	.L148
 585:Drivers/STM32F1xx_HAL_Driver/Src/stm32f1xx_hal_dma.c **** 
 1331              		.loc 1 585 0 discriminator 17
 1332 0328 1432     		adds	r2, r2, #20
 1333 032a 9342     		cmp	r3, r2
 1334 032c 26D0     		beq	.L149
 585:Drivers/STM32F1xx_HAL_Driver/Src/stm32f1xx_hal_dma.c **** 
 1335              		.loc 1 585 0 discriminator 19
 1336 032e 1432     		adds	r2, r2, #20
 1337 0330 9342     		cmp	r3, r2
 1338 0332 25D0     		beq	.L150
 585:Drivers/STM32F1xx_HAL_Driver/Src/stm32f1xx_hal_dma.c **** 
 1339              		.loc 1 585 0 discriminator 21
 1340 0334 1432     		adds	r2, r2, #20
 1341 0336 9342     		cmp	r3, r2
 1342 0338 02D0     		beq	.L195
 585:Drivers/STM32F1xx_HAL_Driver/Src/stm32f1xx_hal_dma.c **** 
 1343              		.loc 1 585 0
 1344 033a 4FF40033 		mov	r3, #131072
 1345 033e 03E0     		b	.L92
ARM GAS  /tmp/ccqJv02S.s 			page 44


 1346              	.L195:
 1347 0340 4FF40053 		mov	r3, #8192
 1348 0344 00E0     		b	.L92
 1349              	.L142:
 1350 0346 0223     		movs	r3, #2
 1351              	.L92:
 585:Drivers/STM32F1xx_HAL_Driver/Src/stm32f1xx_hal_dma.c **** 
 1352              		.loc 1 585 0 discriminator 46
 1353 0348 744A     		ldr	r2, .L201+4
 1354 034a 5360     		str	r3, [r2, #4]
 1355              	.L93:
 589:Drivers/STM32F1xx_HAL_Driver/Src/stm32f1xx_hal_dma.c ****   }
 1356              		.loc 1 589 0 is_stmt 1
 1357 034c 0123     		movs	r3, #1
 1358 034e 84F82130 		strb	r3, [r4, #33]
 1359              	.L95:
 598:Drivers/STM32F1xx_HAL_Driver/Src/stm32f1xx_hal_dma.c **** 
 1360              		.loc 1 598 0
 1361 0352 0020     		movs	r0, #0
 1362 0354 84F82000 		strb	r0, [r4, #32]
 601:Drivers/STM32F1xx_HAL_Driver/Src/stm32f1xx_hal_dma.c **** 
 1363              		.loc 1 601 0
 1364 0358 BDE8F081 		pop	{r4, r5, r6, r7, r8, pc}
 1365              	.LVL63:
 1366              	.L143:
 585:Drivers/STM32F1xx_HAL_Driver/Src/stm32f1xx_hal_dma.c **** 
 1367              		.loc 1 585 0
 1368 035c 2023     		movs	r3, #32
 1369 035e F3E7     		b	.L92
 1370              	.L144:
 1371 0360 4FF40073 		mov	r3, #512
 1372 0364 F0E7     		b	.L92
 1373              	.L145:
 1374 0366 4FF40053 		mov	r3, #8192
 1375 036a EDE7     		b	.L92
 1376              	.L146:
 1377 036c 4FF40033 		mov	r3, #131072
 1378 0370 EAE7     		b	.L92
 1379              	.L147:
 1380 0372 4FF40013 		mov	r3, #2097152
 1381 0376 E7E7     		b	.L92
 1382              	.L148:
 1383 0378 0223     		movs	r3, #2
 1384 037a E5E7     		b	.L92
 1385              	.L149:
 1386 037c 2023     		movs	r3, #32
 1387 037e E3E7     		b	.L92
 1388              	.L150:
 1389 0380 4FF40073 		mov	r3, #512
 1390 0384 E0E7     		b	.L92
 1391              	.L91:
 585:Drivers/STM32F1xx_HAL_Driver/Src/stm32f1xx_hal_dma.c **** 
 1392              		.loc 1 585 0 is_stmt 0 discriminator 2
 1393 0386 664A     		ldr	r2, .L201+8
 1394 0388 9342     		cmp	r3, r2
 1395 038a 24D0     		beq	.L152
 585:Drivers/STM32F1xx_HAL_Driver/Src/stm32f1xx_hal_dma.c **** 
ARM GAS  /tmp/ccqJv02S.s 			page 45


 1396              		.loc 1 585 0 discriminator 47
 1397 038c 1432     		adds	r2, r2, #20
 1398 038e 9342     		cmp	r3, r2
 1399 0390 25D0     		beq	.L153
 585:Drivers/STM32F1xx_HAL_Driver/Src/stm32f1xx_hal_dma.c **** 
 1400              		.loc 1 585 0 discriminator 49
 1401 0392 1432     		adds	r2, r2, #20
 1402 0394 9342     		cmp	r3, r2
 1403 0396 24D0     		beq	.L154
 585:Drivers/STM32F1xx_HAL_Driver/Src/stm32f1xx_hal_dma.c **** 
 1404              		.loc 1 585 0 discriminator 51
 1405 0398 1432     		adds	r2, r2, #20
 1406 039a 9342     		cmp	r3, r2
 1407 039c 24D0     		beq	.L155
 585:Drivers/STM32F1xx_HAL_Driver/Src/stm32f1xx_hal_dma.c **** 
 1408              		.loc 1 585 0 discriminator 53
 1409 039e 1432     		adds	r2, r2, #20
 1410 03a0 9342     		cmp	r3, r2
 1411 03a2 24D0     		beq	.L156
 585:Drivers/STM32F1xx_HAL_Driver/Src/stm32f1xx_hal_dma.c **** 
 1412              		.loc 1 585 0 discriminator 55
 1413 03a4 1432     		adds	r2, r2, #20
 1414 03a6 9342     		cmp	r3, r2
 1415 03a8 24D0     		beq	.L157
 585:Drivers/STM32F1xx_HAL_Driver/Src/stm32f1xx_hal_dma.c **** 
 1416              		.loc 1 585 0 discriminator 57
 1417 03aa 1432     		adds	r2, r2, #20
 1418 03ac 9342     		cmp	r3, r2
 1419 03ae 24D0     		beq	.L158
 585:Drivers/STM32F1xx_HAL_Driver/Src/stm32f1xx_hal_dma.c **** 
 1420              		.loc 1 585 0 discriminator 59
 1421 03b0 02F56272 		add	r2, r2, #904
 1422 03b4 9342     		cmp	r3, r2
 1423 03b6 23D0     		beq	.L159
 585:Drivers/STM32F1xx_HAL_Driver/Src/stm32f1xx_hal_dma.c **** 
 1424              		.loc 1 585 0 discriminator 61
 1425 03b8 1432     		adds	r2, r2, #20
 1426 03ba 9342     		cmp	r3, r2
 1427 03bc 22D0     		beq	.L160
 585:Drivers/STM32F1xx_HAL_Driver/Src/stm32f1xx_hal_dma.c **** 
 1428              		.loc 1 585 0 discriminator 63
 1429 03be 1432     		adds	r2, r2, #20
 1430 03c0 9342     		cmp	r3, r2
 1431 03c2 21D0     		beq	.L161
 585:Drivers/STM32F1xx_HAL_Driver/Src/stm32f1xx_hal_dma.c **** 
 1432              		.loc 1 585 0 discriminator 65
 1433 03c4 1432     		adds	r2, r2, #20
 1434 03c6 9342     		cmp	r3, r2
 1435 03c8 02D0     		beq	.L196
 585:Drivers/STM32F1xx_HAL_Driver/Src/stm32f1xx_hal_dma.c **** 
 1436              		.loc 1 585 0
 1437 03ca 4FF40033 		mov	r3, #131072
 1438 03ce 03E0     		b	.L94
 1439              	.L196:
 1440 03d0 4FF40053 		mov	r3, #8192
 1441 03d4 00E0     		b	.L94
 1442              	.L152:
ARM GAS  /tmp/ccqJv02S.s 			page 46


 1443 03d6 0223     		movs	r3, #2
 1444              	.L94:
 585:Drivers/STM32F1xx_HAL_Driver/Src/stm32f1xx_hal_dma.c **** 
 1445              		.loc 1 585 0 discriminator 90
 1446 03d8 524A     		ldr	r2, .L201+12
 1447 03da 5360     		str	r3, [r2, #4]
 1448 03dc B6E7     		b	.L93
 1449              	.L153:
 585:Drivers/STM32F1xx_HAL_Driver/Src/stm32f1xx_hal_dma.c **** 
 1450              		.loc 1 585 0
 1451 03de 2023     		movs	r3, #32
 1452 03e0 FAE7     		b	.L94
 1453              	.L154:
 1454 03e2 4FF40073 		mov	r3, #512
 1455 03e6 F7E7     		b	.L94
 1456              	.L155:
 1457 03e8 4FF40053 		mov	r3, #8192
 1458 03ec F4E7     		b	.L94
 1459              	.L156:
 1460 03ee 4FF40033 		mov	r3, #131072
 1461 03f2 F1E7     		b	.L94
 1462              	.L157:
 1463 03f4 4FF40013 		mov	r3, #2097152
 1464 03f8 EEE7     		b	.L94
 1465              	.L158:
 1466 03fa 4FF00073 		mov	r3, #33554432
 1467 03fe EBE7     		b	.L94
 1468              	.L159:
 1469 0400 0223     		movs	r3, #2
 1470 0402 E9E7     		b	.L94
 1471              	.L160:
 1472 0404 2023     		movs	r3, #32
 1473 0406 E7E7     		b	.L94
 1474              	.L161:
 1475 0408 4FF40073 		mov	r3, #512
 1476 040c E4E7     		b	.L94
 1477              	.L90:
 594:Drivers/STM32F1xx_HAL_Driver/Src/stm32f1xx_hal_dma.c ****   }
 1478              		.loc 1 594 0 is_stmt 1
 1479 040e 424A     		ldr	r2, .L201
 1480 0410 9342     		cmp	r3, r2
 1481 0412 3DD9     		bls	.L96
 594:Drivers/STM32F1xx_HAL_Driver/Src/stm32f1xx_hal_dma.c ****   }
 1482              		.loc 1 594 0 is_stmt 0 discriminator 1
 1483 0414 783A     		subs	r2, r2, #120
 1484 0416 9342     		cmp	r3, r2
 1485 0418 21D0     		beq	.L163
 594:Drivers/STM32F1xx_HAL_Driver/Src/stm32f1xx_hal_dma.c ****   }
 1486              		.loc 1 594 0 discriminator 3
 1487 041a 1432     		adds	r2, r2, #20
 1488 041c 9342     		cmp	r3, r2
 1489 041e 22D0     		beq	.L164
 594:Drivers/STM32F1xx_HAL_Driver/Src/stm32f1xx_hal_dma.c ****   }
 1490              		.loc 1 594 0 discriminator 5
 1491 0420 1432     		adds	r2, r2, #20
 1492 0422 9342     		cmp	r3, r2
 1493 0424 21D0     		beq	.L165
ARM GAS  /tmp/ccqJv02S.s 			page 47


 594:Drivers/STM32F1xx_HAL_Driver/Src/stm32f1xx_hal_dma.c ****   }
 1494              		.loc 1 594 0 discriminator 7
 1495 0426 1432     		adds	r2, r2, #20
 1496 0428 9342     		cmp	r3, r2
 1497 042a 21D0     		beq	.L166
 594:Drivers/STM32F1xx_HAL_Driver/Src/stm32f1xx_hal_dma.c ****   }
 1498              		.loc 1 594 0 discriminator 9
 1499 042c 1432     		adds	r2, r2, #20
 1500 042e 9342     		cmp	r3, r2
 1501 0430 21D0     		beq	.L167
 594:Drivers/STM32F1xx_HAL_Driver/Src/stm32f1xx_hal_dma.c ****   }
 1502              		.loc 1 594 0 discriminator 11
 1503 0432 1432     		adds	r2, r2, #20
 1504 0434 9342     		cmp	r3, r2
 1505 0436 21D0     		beq	.L168
 594:Drivers/STM32F1xx_HAL_Driver/Src/stm32f1xx_hal_dma.c ****   }
 1506              		.loc 1 594 0 discriminator 15
 1507 0438 02F56772 		add	r2, r2, #924
 1508 043c 9342     		cmp	r3, r2
 1509 043e 20D0     		beq	.L169
 594:Drivers/STM32F1xx_HAL_Driver/Src/stm32f1xx_hal_dma.c ****   }
 1510              		.loc 1 594 0 discriminator 17
 1511 0440 1432     		adds	r2, r2, #20
 1512 0442 9342     		cmp	r3, r2
 1513 0444 1FD0     		beq	.L170
 594:Drivers/STM32F1xx_HAL_Driver/Src/stm32f1xx_hal_dma.c ****   }
 1514              		.loc 1 594 0 discriminator 19
 1515 0446 1432     		adds	r2, r2, #20
 1516 0448 9342     		cmp	r3, r2
 1517 044a 1ED0     		beq	.L171
 594:Drivers/STM32F1xx_HAL_Driver/Src/stm32f1xx_hal_dma.c ****   }
 1518              		.loc 1 594 0 discriminator 21
 1519 044c 1432     		adds	r2, r2, #20
 1520 044e 9342     		cmp	r3, r2
 1521 0450 02D0     		beq	.L197
 594:Drivers/STM32F1xx_HAL_Driver/Src/stm32f1xx_hal_dma.c ****   }
 1522              		.loc 1 594 0
 1523 0452 4FF48023 		mov	r3, #262144
 1524 0456 03E0     		b	.L97
 1525              	.L197:
 1526 0458 4FF48043 		mov	r3, #16384
 1527 045c 00E0     		b	.L97
 1528              	.L163:
 1529 045e 0423     		movs	r3, #4
 1530              	.L97:
 594:Drivers/STM32F1xx_HAL_Driver/Src/stm32f1xx_hal_dma.c ****   }
 1531              		.loc 1 594 0 discriminator 46
 1532 0460 2E4A     		ldr	r2, .L201+4
 1533 0462 5360     		str	r3, [r2, #4]
 1534 0464 75E7     		b	.L95
 1535              	.L164:
 594:Drivers/STM32F1xx_HAL_Driver/Src/stm32f1xx_hal_dma.c ****   }
 1536              		.loc 1 594 0
 1537 0466 4023     		movs	r3, #64
 1538 0468 FAE7     		b	.L97
 1539              	.L165:
 1540 046a 4FF48063 		mov	r3, #1024
ARM GAS  /tmp/ccqJv02S.s 			page 48


 1541 046e F7E7     		b	.L97
 1542              	.L166:
 1543 0470 4FF48043 		mov	r3, #16384
 1544 0474 F4E7     		b	.L97
 1545              	.L167:
 1546 0476 4FF48023 		mov	r3, #262144
 1547 047a F1E7     		b	.L97
 1548              	.L168:
 1549 047c 4FF48003 		mov	r3, #4194304
 1550 0480 EEE7     		b	.L97
 1551              	.L169:
 1552 0482 0423     		movs	r3, #4
 1553 0484 ECE7     		b	.L97
 1554              	.L170:
 1555 0486 4023     		movs	r3, #64
 1556 0488 EAE7     		b	.L97
 1557              	.L171:
 1558 048a 4FF48063 		mov	r3, #1024
 1559 048e E7E7     		b	.L97
 1560              	.L96:
 594:Drivers/STM32F1xx_HAL_Driver/Src/stm32f1xx_hal_dma.c ****   }
 1561              		.loc 1 594 0 discriminator 2
 1562 0490 234A     		ldr	r2, .L201+8
 1563 0492 9342     		cmp	r3, r2
 1564 0494 24D0     		beq	.L173
 594:Drivers/STM32F1xx_HAL_Driver/Src/stm32f1xx_hal_dma.c ****   }
 1565              		.loc 1 594 0 discriminator 47
 1566 0496 1432     		adds	r2, r2, #20
 1567 0498 9342     		cmp	r3, r2
 1568 049a 25D0     		beq	.L174
 594:Drivers/STM32F1xx_HAL_Driver/Src/stm32f1xx_hal_dma.c ****   }
 1569              		.loc 1 594 0 discriminator 49
 1570 049c 1432     		adds	r2, r2, #20
 1571 049e 9342     		cmp	r3, r2
 1572 04a0 24D0     		beq	.L175
 594:Drivers/STM32F1xx_HAL_Driver/Src/stm32f1xx_hal_dma.c ****   }
 1573              		.loc 1 594 0 discriminator 51
 1574 04a2 1432     		adds	r2, r2, #20
 1575 04a4 9342     		cmp	r3, r2
 1576 04a6 24D0     		beq	.L176
 594:Drivers/STM32F1xx_HAL_Driver/Src/stm32f1xx_hal_dma.c ****   }
 1577              		.loc 1 594 0 discriminator 53
 1578 04a8 1432     		adds	r2, r2, #20
 1579 04aa 9342     		cmp	r3, r2
 1580 04ac 24D0     		beq	.L177
 594:Drivers/STM32F1xx_HAL_Driver/Src/stm32f1xx_hal_dma.c ****   }
 1581              		.loc 1 594 0 discriminator 55
 1582 04ae 1432     		adds	r2, r2, #20
 1583 04b0 9342     		cmp	r3, r2
 1584 04b2 24D0     		beq	.L178
 594:Drivers/STM32F1xx_HAL_Driver/Src/stm32f1xx_hal_dma.c ****   }
 1585              		.loc 1 594 0 discriminator 57
 1586 04b4 1432     		adds	r2, r2, #20
 1587 04b6 9342     		cmp	r3, r2
 1588 04b8 24D0     		beq	.L179
 594:Drivers/STM32F1xx_HAL_Driver/Src/stm32f1xx_hal_dma.c ****   }
 1589              		.loc 1 594 0 discriminator 59
ARM GAS  /tmp/ccqJv02S.s 			page 49


 1590 04ba 02F56272 		add	r2, r2, #904
 1591 04be 9342     		cmp	r3, r2
 1592 04c0 23D0     		beq	.L180
 594:Drivers/STM32F1xx_HAL_Driver/Src/stm32f1xx_hal_dma.c ****   }
 1593              		.loc 1 594 0 discriminator 61
 1594 04c2 1432     		adds	r2, r2, #20
 1595 04c4 9342     		cmp	r3, r2
 1596 04c6 22D0     		beq	.L181
 594:Drivers/STM32F1xx_HAL_Driver/Src/stm32f1xx_hal_dma.c ****   }
 1597              		.loc 1 594 0 discriminator 63
 1598 04c8 1432     		adds	r2, r2, #20
 1599 04ca 9342     		cmp	r3, r2
 1600 04cc 21D0     		beq	.L182
 594:Drivers/STM32F1xx_HAL_Driver/Src/stm32f1xx_hal_dma.c ****   }
 1601              		.loc 1 594 0 discriminator 65
 1602 04ce 1432     		adds	r2, r2, #20
 1603 04d0 9342     		cmp	r3, r2
 1604 04d2 02D0     		beq	.L198
 594:Drivers/STM32F1xx_HAL_Driver/Src/stm32f1xx_hal_dma.c ****   }
 1605              		.loc 1 594 0
 1606 04d4 4FF48023 		mov	r3, #262144
 1607 04d8 03E0     		b	.L98
 1608              	.L198:
 1609 04da 4FF48043 		mov	r3, #16384
 1610 04de 00E0     		b	.L98
 1611              	.L173:
 1612 04e0 0423     		movs	r3, #4
 1613              	.L98:
 594:Drivers/STM32F1xx_HAL_Driver/Src/stm32f1xx_hal_dma.c ****   }
 1614              		.loc 1 594 0 discriminator 90
 1615 04e2 104A     		ldr	r2, .L201+12
 1616 04e4 5360     		str	r3, [r2, #4]
 1617 04e6 34E7     		b	.L95
 1618              	.L174:
 594:Drivers/STM32F1xx_HAL_Driver/Src/stm32f1xx_hal_dma.c ****   }
 1619              		.loc 1 594 0
 1620 04e8 4023     		movs	r3, #64
 1621 04ea FAE7     		b	.L98
 1622              	.L175:
 1623 04ec 4FF48063 		mov	r3, #1024
 1624 04f0 F7E7     		b	.L98
 1625              	.L176:
 1626 04f2 4FF48043 		mov	r3, #16384
 1627 04f6 F4E7     		b	.L98
 1628              	.L177:
 1629 04f8 4FF48023 		mov	r3, #262144
 1630 04fc F1E7     		b	.L98
 1631              	.L178:
 1632 04fe 4FF48003 		mov	r3, #4194304
 1633 0502 EEE7     		b	.L98
 1634              	.L179:
 1635 0504 4FF08063 		mov	r3, #67108864
 1636 0508 EBE7     		b	.L98
 1637              	.L180:
 1638 050a 0423     		movs	r3, #4
 1639 050c E9E7     		b	.L98
 1640              	.L181:
ARM GAS  /tmp/ccqJv02S.s 			page 50


 1641 050e 4023     		movs	r3, #64
 1642 0510 E7E7     		b	.L98
 1643              	.L182:
 1644 0512 4FF48063 		mov	r3, #1024
 1645 0516 E4E7     		b	.L98
 1646              	.L202:
 1647              		.align	2
 1648              	.L201:
 1649 0518 80000240 		.word	1073873024
 1650 051c 00040240 		.word	1073873920
 1651 0520 08000240 		.word	1073872904
 1652 0524 00000240 		.word	1073872896
 1653              		.cfi_endproc
 1654              	.LFE70:
 1656              		.section	.text.HAL_DMA_IRQHandler,"ax",%progbits
 1657              		.align	1
 1658              		.global	HAL_DMA_IRQHandler
 1659              		.syntax unified
 1660              		.thumb
 1661              		.thumb_func
 1662              		.fpu softvfp
 1664              	HAL_DMA_IRQHandler:
 1665              	.LFB71:
 610:Drivers/STM32F1xx_HAL_Driver/Src/stm32f1xx_hal_dma.c ****   uint32_t flag_it = hdma->DmaBaseAddress->ISR;
 1666              		.loc 1 610 0 is_stmt 1
 1667              		.cfi_startproc
 1668              		@ args = 0, pretend = 0, frame = 0
 1669              		@ frame_needed = 0, uses_anonymous_args = 0
 1670              	.LVL64:
 1671 0000 38B5     		push	{r3, r4, r5, lr}
 1672              	.LCFI11:
 1673              		.cfi_def_cfa_offset 16
 1674              		.cfi_offset 3, -16
 1675              		.cfi_offset 4, -12
 1676              		.cfi_offset 5, -8
 1677              		.cfi_offset 14, -4
 611:Drivers/STM32F1xx_HAL_Driver/Src/stm32f1xx_hal_dma.c ****   uint32_t source_it = hdma->Instance->CCR;
 1678              		.loc 1 611 0
 1679 0002 C36B     		ldr	r3, [r0, #60]
 1680 0004 1A68     		ldr	r2, [r3]
 1681              	.LVL65:
 612:Drivers/STM32F1xx_HAL_Driver/Src/stm32f1xx_hal_dma.c ****   
 1682              		.loc 1 612 0
 1683 0006 0468     		ldr	r4, [r0]
 1684 0008 2568     		ldr	r5, [r4]
 1685              	.LVL66:
 615:Drivers/STM32F1xx_HAL_Driver/Src/stm32f1xx_hal_dma.c ****   {
 1686              		.loc 1 615 0
 1687 000a 016C     		ldr	r1, [r0, #64]
 1688 000c 0423     		movs	r3, #4
 1689 000e 8B40     		lsls	r3, r3, r1
 1690 0010 1A42     		tst	r2, r3
 1691 0012 00F09780 		beq	.L204
 615:Drivers/STM32F1xx_HAL_Driver/Src/stm32f1xx_hal_dma.c ****   {
 1692              		.loc 1 615 0 is_stmt 0 discriminator 1
 1693 0016 15F0040F 		tst	r5, #4
 1694 001a 00F09380 		beq	.L204
ARM GAS  /tmp/ccqJv02S.s 			page 51


 618:Drivers/STM32F1xx_HAL_Driver/Src/stm32f1xx_hal_dma.c ****     {
 1695              		.loc 1 618 0 is_stmt 1
 1696 001e 2368     		ldr	r3, [r4]
 1697 0020 13F0200F 		tst	r3, #32
 1698 0024 03D1     		bne	.L205
 621:Drivers/STM32F1xx_HAL_Driver/Src/stm32f1xx_hal_dma.c ****     }
 1699              		.loc 1 621 0
 1700 0026 2368     		ldr	r3, [r4]
 1701 0028 23F00403 		bic	r3, r3, #4
 1702 002c 2360     		str	r3, [r4]
 1703              	.L205:
 624:Drivers/STM32F1xx_HAL_Driver/Src/stm32f1xx_hal_dma.c **** 
 1704              		.loc 1 624 0
 1705 002e 0368     		ldr	r3, [r0]
 1706 0030 A34A     		ldr	r2, .L264
 1707              	.LVL67:
 1708 0032 9342     		cmp	r3, r2
 1709 0034 42D9     		bls	.L206
 624:Drivers/STM32F1xx_HAL_Driver/Src/stm32f1xx_hal_dma.c **** 
 1710              		.loc 1 624 0 is_stmt 0 discriminator 1
 1711 0036 783A     		subs	r2, r2, #120
 1712 0038 9342     		cmp	r3, r2
 1713 003a 21D0     		beq	.L217
 624:Drivers/STM32F1xx_HAL_Driver/Src/stm32f1xx_hal_dma.c **** 
 1714              		.loc 1 624 0 discriminator 3
 1715 003c 1432     		adds	r2, r2, #20
 1716 003e 9342     		cmp	r3, r2
 1717 0040 27D0     		beq	.L218
 624:Drivers/STM32F1xx_HAL_Driver/Src/stm32f1xx_hal_dma.c **** 
 1718              		.loc 1 624 0 discriminator 5
 1719 0042 1432     		adds	r2, r2, #20
 1720 0044 9342     		cmp	r3, r2
 1721 0046 26D0     		beq	.L219
 624:Drivers/STM32F1xx_HAL_Driver/Src/stm32f1xx_hal_dma.c **** 
 1722              		.loc 1 624 0 discriminator 7
 1723 0048 1432     		adds	r2, r2, #20
 1724 004a 9342     		cmp	r3, r2
 1725 004c 26D0     		beq	.L220
 624:Drivers/STM32F1xx_HAL_Driver/Src/stm32f1xx_hal_dma.c **** 
 1726              		.loc 1 624 0 discriminator 9
 1727 004e 1432     		adds	r2, r2, #20
 1728 0050 9342     		cmp	r3, r2
 1729 0052 26D0     		beq	.L221
 624:Drivers/STM32F1xx_HAL_Driver/Src/stm32f1xx_hal_dma.c **** 
 1730              		.loc 1 624 0 discriminator 11
 1731 0054 1432     		adds	r2, r2, #20
 1732 0056 9342     		cmp	r3, r2
 1733 0058 26D0     		beq	.L222
 624:Drivers/STM32F1xx_HAL_Driver/Src/stm32f1xx_hal_dma.c **** 
 1734              		.loc 1 624 0 discriminator 15
 1735 005a 02F56772 		add	r2, r2, #924
 1736 005e 9342     		cmp	r3, r2
 1737 0060 25D0     		beq	.L223
 624:Drivers/STM32F1xx_HAL_Driver/Src/stm32f1xx_hal_dma.c **** 
 1738              		.loc 1 624 0 discriminator 17
 1739 0062 1432     		adds	r2, r2, #20
 1740 0064 9342     		cmp	r3, r2
ARM GAS  /tmp/ccqJv02S.s 			page 52


 1741 0066 24D0     		beq	.L224
 624:Drivers/STM32F1xx_HAL_Driver/Src/stm32f1xx_hal_dma.c **** 
 1742              		.loc 1 624 0 discriminator 19
 1743 0068 1432     		adds	r2, r2, #20
 1744 006a 9342     		cmp	r3, r2
 1745 006c 23D0     		beq	.L225
 624:Drivers/STM32F1xx_HAL_Driver/Src/stm32f1xx_hal_dma.c **** 
 1746              		.loc 1 624 0 discriminator 21
 1747 006e 1432     		adds	r2, r2, #20
 1748 0070 9342     		cmp	r3, r2
 1749 0072 02D0     		beq	.L260
 624:Drivers/STM32F1xx_HAL_Driver/Src/stm32f1xx_hal_dma.c **** 
 1750              		.loc 1 624 0
 1751 0074 4FF48022 		mov	r2, #262144
 1752 0078 03E0     		b	.L207
 1753              	.L260:
 1754 007a 4FF48042 		mov	r2, #16384
 1755 007e 00E0     		b	.L207
 1756              	.L217:
 1757 0080 0422     		movs	r2, #4
 1758              	.L207:
 624:Drivers/STM32F1xx_HAL_Driver/Src/stm32f1xx_hal_dma.c **** 
 1759              		.loc 1 624 0 discriminator 46
 1760 0082 904B     		ldr	r3, .L264+4
 1761 0084 5A60     		str	r2, [r3, #4]
 1762              	.L208:
 629:Drivers/STM32F1xx_HAL_Driver/Src/stm32f1xx_hal_dma.c ****     {
 1763              		.loc 1 629 0 is_stmt 1
 1764 0086 C36A     		ldr	r3, [r0, #44]
 1765 0088 002B     		cmp	r3, #0
 1766 008a 00F01781 		beq	.L203
 632:Drivers/STM32F1xx_HAL_Driver/Src/stm32f1xx_hal_dma.c ****     }
 1767              		.loc 1 632 0
 1768 008e 9847     		blx	r3
 1769              	.LVL68:
 1770 0090 38BD     		pop	{r3, r4, r5, pc}
 1771              	.LVL69:
 1772              	.L218:
 624:Drivers/STM32F1xx_HAL_Driver/Src/stm32f1xx_hal_dma.c **** 
 1773              		.loc 1 624 0
 1774 0092 4022     		movs	r2, #64
 1775 0094 F5E7     		b	.L207
 1776              	.L219:
 1777 0096 4FF48062 		mov	r2, #1024
 1778 009a F2E7     		b	.L207
 1779              	.L220:
 1780 009c 4FF48042 		mov	r2, #16384
 1781 00a0 EFE7     		b	.L207
 1782              	.L221:
 1783 00a2 4FF48022 		mov	r2, #262144
 1784 00a6 ECE7     		b	.L207
 1785              	.L222:
 1786 00a8 4FF48002 		mov	r2, #4194304
 1787 00ac E9E7     		b	.L207
 1788              	.L223:
 1789 00ae 0422     		movs	r2, #4
 1790 00b0 E7E7     		b	.L207
ARM GAS  /tmp/ccqJv02S.s 			page 53


 1791              	.L224:
 1792 00b2 4022     		movs	r2, #64
 1793 00b4 E5E7     		b	.L207
 1794              	.L225:
 1795 00b6 4FF48062 		mov	r2, #1024
 1796 00ba E2E7     		b	.L207
 1797              	.L206:
 624:Drivers/STM32F1xx_HAL_Driver/Src/stm32f1xx_hal_dma.c **** 
 1798              		.loc 1 624 0 is_stmt 0 discriminator 2
 1799 00bc 824A     		ldr	r2, .L264+8
 1800 00be 9342     		cmp	r3, r2
 1801 00c0 24D0     		beq	.L227
 624:Drivers/STM32F1xx_HAL_Driver/Src/stm32f1xx_hal_dma.c **** 
 1802              		.loc 1 624 0 discriminator 47
 1803 00c2 1432     		adds	r2, r2, #20
 1804 00c4 9342     		cmp	r3, r2
 1805 00c6 25D0     		beq	.L228
 624:Drivers/STM32F1xx_HAL_Driver/Src/stm32f1xx_hal_dma.c **** 
 1806              		.loc 1 624 0 discriminator 49
 1807 00c8 1432     		adds	r2, r2, #20
 1808 00ca 9342     		cmp	r3, r2
 1809 00cc 24D0     		beq	.L229
 624:Drivers/STM32F1xx_HAL_Driver/Src/stm32f1xx_hal_dma.c **** 
 1810              		.loc 1 624 0 discriminator 51
 1811 00ce 1432     		adds	r2, r2, #20
 1812 00d0 9342     		cmp	r3, r2
 1813 00d2 24D0     		beq	.L230
 624:Drivers/STM32F1xx_HAL_Driver/Src/stm32f1xx_hal_dma.c **** 
 1814              		.loc 1 624 0 discriminator 53
 1815 00d4 1432     		adds	r2, r2, #20
 1816 00d6 9342     		cmp	r3, r2
 1817 00d8 24D0     		beq	.L231
 624:Drivers/STM32F1xx_HAL_Driver/Src/stm32f1xx_hal_dma.c **** 
 1818              		.loc 1 624 0 discriminator 55
 1819 00da 1432     		adds	r2, r2, #20
 1820 00dc 9342     		cmp	r3, r2
 1821 00de 24D0     		beq	.L232
 624:Drivers/STM32F1xx_HAL_Driver/Src/stm32f1xx_hal_dma.c **** 
 1822              		.loc 1 624 0 discriminator 57
 1823 00e0 1432     		adds	r2, r2, #20
 1824 00e2 9342     		cmp	r3, r2
 1825 00e4 24D0     		beq	.L233
 624:Drivers/STM32F1xx_HAL_Driver/Src/stm32f1xx_hal_dma.c **** 
 1826              		.loc 1 624 0 discriminator 59
 1827 00e6 02F56272 		add	r2, r2, #904
 1828 00ea 9342     		cmp	r3, r2
 1829 00ec 23D0     		beq	.L234
 624:Drivers/STM32F1xx_HAL_Driver/Src/stm32f1xx_hal_dma.c **** 
 1830              		.loc 1 624 0 discriminator 61
 1831 00ee 1432     		adds	r2, r2, #20
 1832 00f0 9342     		cmp	r3, r2
 1833 00f2 22D0     		beq	.L235
 624:Drivers/STM32F1xx_HAL_Driver/Src/stm32f1xx_hal_dma.c **** 
 1834              		.loc 1 624 0 discriminator 63
 1835 00f4 1432     		adds	r2, r2, #20
 1836 00f6 9342     		cmp	r3, r2
 1837 00f8 21D0     		beq	.L236
ARM GAS  /tmp/ccqJv02S.s 			page 54


 624:Drivers/STM32F1xx_HAL_Driver/Src/stm32f1xx_hal_dma.c **** 
 1838              		.loc 1 624 0 discriminator 65
 1839 00fa 1432     		adds	r2, r2, #20
 1840 00fc 9342     		cmp	r3, r2
 1841 00fe 02D0     		beq	.L261
 624:Drivers/STM32F1xx_HAL_Driver/Src/stm32f1xx_hal_dma.c **** 
 1842              		.loc 1 624 0
 1843 0100 4FF48022 		mov	r2, #262144
 1844 0104 03E0     		b	.L209
 1845              	.L261:
 1846 0106 4FF48042 		mov	r2, #16384
 1847 010a 00E0     		b	.L209
 1848              	.L227:
 1849 010c 0422     		movs	r2, #4
 1850              	.L209:
 624:Drivers/STM32F1xx_HAL_Driver/Src/stm32f1xx_hal_dma.c **** 
 1851              		.loc 1 624 0 discriminator 90
 1852 010e 6F4B     		ldr	r3, .L264+12
 1853 0110 5A60     		str	r2, [r3, #4]
 1854 0112 B8E7     		b	.L208
 1855              	.L228:
 624:Drivers/STM32F1xx_HAL_Driver/Src/stm32f1xx_hal_dma.c **** 
 1856              		.loc 1 624 0
 1857 0114 4022     		movs	r2, #64
 1858 0116 FAE7     		b	.L209
 1859              	.L229:
 1860 0118 4FF48062 		mov	r2, #1024
 1861 011c F7E7     		b	.L209
 1862              	.L230:
 1863 011e 4FF48042 		mov	r2, #16384
 1864 0122 F4E7     		b	.L209
 1865              	.L231:
 1866 0124 4FF48022 		mov	r2, #262144
 1867 0128 F1E7     		b	.L209
 1868              	.L232:
 1869 012a 4FF48002 		mov	r2, #4194304
 1870 012e EEE7     		b	.L209
 1871              	.L233:
 1872 0130 4FF08062 		mov	r2, #67108864
 1873 0134 EBE7     		b	.L209
 1874              	.L234:
 1875 0136 0422     		movs	r2, #4
 1876 0138 E9E7     		b	.L209
 1877              	.L235:
 1878 013a 4022     		movs	r2, #64
 1879 013c E7E7     		b	.L209
 1880              	.L236:
 1881 013e 4FF48062 		mov	r2, #1024
 1882 0142 E4E7     		b	.L209
 1883              	.LVL70:
 1884              	.L204:
 637:Drivers/STM32F1xx_HAL_Driver/Src/stm32f1xx_hal_dma.c ****   {
 1885              		.loc 1 637 0 is_stmt 1
 1886 0144 0223     		movs	r3, #2
 1887 0146 8B40     		lsls	r3, r3, r1
 1888 0148 1A42     		tst	r2, r3
 1889 014a 00F09C80 		beq	.L211
ARM GAS  /tmp/ccqJv02S.s 			page 55


 637:Drivers/STM32F1xx_HAL_Driver/Src/stm32f1xx_hal_dma.c ****   {
 1890              		.loc 1 637 0 is_stmt 0 discriminator 1
 1891 014e 15F0020F 		tst	r5, #2
 1892 0152 00F09880 		beq	.L211
 639:Drivers/STM32F1xx_HAL_Driver/Src/stm32f1xx_hal_dma.c ****     {
 1893              		.loc 1 639 0 is_stmt 1
 1894 0156 2368     		ldr	r3, [r4]
 1895 0158 13F0200F 		tst	r3, #32
 1896 015c 06D1     		bne	.L212
 642:Drivers/STM32F1xx_HAL_Driver/Src/stm32f1xx_hal_dma.c **** 
 1897              		.loc 1 642 0
 1898 015e 2368     		ldr	r3, [r4]
 1899 0160 23F00A03 		bic	r3, r3, #10
 1900 0164 2360     		str	r3, [r4]
 645:Drivers/STM32F1xx_HAL_Driver/Src/stm32f1xx_hal_dma.c ****     }
 1901              		.loc 1 645 0
 1902 0166 0123     		movs	r3, #1
 1903 0168 80F82130 		strb	r3, [r0, #33]
 1904              	.L212:
 648:Drivers/STM32F1xx_HAL_Driver/Src/stm32f1xx_hal_dma.c **** 
 1905              		.loc 1 648 0
 1906 016c 0368     		ldr	r3, [r0]
 1907 016e 544A     		ldr	r2, .L264
 1908              	.LVL71:
 1909 0170 9342     		cmp	r3, r2
 1910 0172 44D9     		bls	.L213
 648:Drivers/STM32F1xx_HAL_Driver/Src/stm32f1xx_hal_dma.c **** 
 1911              		.loc 1 648 0 is_stmt 0 discriminator 1
 1912 0174 783A     		subs	r2, r2, #120
 1913 0176 9342     		cmp	r3, r2
 1914 0178 21D0     		beq	.L238
 648:Drivers/STM32F1xx_HAL_Driver/Src/stm32f1xx_hal_dma.c **** 
 1915              		.loc 1 648 0 discriminator 3
 1916 017a 1432     		adds	r2, r2, #20
 1917 017c 9342     		cmp	r3, r2
 1918 017e 29D0     		beq	.L239
 648:Drivers/STM32F1xx_HAL_Driver/Src/stm32f1xx_hal_dma.c **** 
 1919              		.loc 1 648 0 discriminator 5
 1920 0180 1432     		adds	r2, r2, #20
 1921 0182 9342     		cmp	r3, r2
 1922 0184 28D0     		beq	.L240
 648:Drivers/STM32F1xx_HAL_Driver/Src/stm32f1xx_hal_dma.c **** 
 1923              		.loc 1 648 0 discriminator 7
 1924 0186 1432     		adds	r2, r2, #20
 1925 0188 9342     		cmp	r3, r2
 1926 018a 28D0     		beq	.L241
 648:Drivers/STM32F1xx_HAL_Driver/Src/stm32f1xx_hal_dma.c **** 
 1927              		.loc 1 648 0 discriminator 9
 1928 018c 1432     		adds	r2, r2, #20
 1929 018e 9342     		cmp	r3, r2
 1930 0190 28D0     		beq	.L242
 648:Drivers/STM32F1xx_HAL_Driver/Src/stm32f1xx_hal_dma.c **** 
 1931              		.loc 1 648 0 discriminator 11
 1932 0192 1432     		adds	r2, r2, #20
 1933 0194 9342     		cmp	r3, r2
 1934 0196 28D0     		beq	.L243
 648:Drivers/STM32F1xx_HAL_Driver/Src/stm32f1xx_hal_dma.c **** 
ARM GAS  /tmp/ccqJv02S.s 			page 56


 1935              		.loc 1 648 0 discriminator 15
 1936 0198 02F56772 		add	r2, r2, #924
 1937 019c 9342     		cmp	r3, r2
 1938 019e 27D0     		beq	.L244
 648:Drivers/STM32F1xx_HAL_Driver/Src/stm32f1xx_hal_dma.c **** 
 1939              		.loc 1 648 0 discriminator 17
 1940 01a0 1432     		adds	r2, r2, #20
 1941 01a2 9342     		cmp	r3, r2
 1942 01a4 26D0     		beq	.L245
 648:Drivers/STM32F1xx_HAL_Driver/Src/stm32f1xx_hal_dma.c **** 
 1943              		.loc 1 648 0 discriminator 19
 1944 01a6 1432     		adds	r2, r2, #20
 1945 01a8 9342     		cmp	r3, r2
 1946 01aa 25D0     		beq	.L246
 648:Drivers/STM32F1xx_HAL_Driver/Src/stm32f1xx_hal_dma.c **** 
 1947              		.loc 1 648 0 discriminator 21
 1948 01ac 1432     		adds	r2, r2, #20
 1949 01ae 9342     		cmp	r3, r2
 1950 01b0 02D0     		beq	.L262
 648:Drivers/STM32F1xx_HAL_Driver/Src/stm32f1xx_hal_dma.c **** 
 1951              		.loc 1 648 0
 1952 01b2 4FF40032 		mov	r2, #131072
 1953 01b6 03E0     		b	.L214
 1954              	.L262:
 1955 01b8 4FF40052 		mov	r2, #8192
 1956 01bc 00E0     		b	.L214
 1957              	.L238:
 1958 01be 0222     		movs	r2, #2
 1959              	.L214:
 648:Drivers/STM32F1xx_HAL_Driver/Src/stm32f1xx_hal_dma.c **** 
 1960              		.loc 1 648 0 discriminator 46
 1961 01c0 404B     		ldr	r3, .L264+4
 1962 01c2 5A60     		str	r2, [r3, #4]
 1963              	.L215:
 651:Drivers/STM32F1xx_HAL_Driver/Src/stm32f1xx_hal_dma.c **** 
 1964              		.loc 1 651 0 is_stmt 1
 1965 01c4 0023     		movs	r3, #0
 1966 01c6 80F82030 		strb	r3, [r0, #32]
 653:Drivers/STM32F1xx_HAL_Driver/Src/stm32f1xx_hal_dma.c ****     {
 1967              		.loc 1 653 0
 1968 01ca 836A     		ldr	r3, [r0, #40]
 1969 01cc 002B     		cmp	r3, #0
 1970 01ce 75D0     		beq	.L203
 656:Drivers/STM32F1xx_HAL_Driver/Src/stm32f1xx_hal_dma.c ****     }
 1971              		.loc 1 656 0
 1972 01d0 9847     		blx	r3
 1973              	.LVL72:
 1974 01d2 38BD     		pop	{r3, r4, r5, pc}
 1975              	.LVL73:
 1976              	.L239:
 648:Drivers/STM32F1xx_HAL_Driver/Src/stm32f1xx_hal_dma.c **** 
 1977              		.loc 1 648 0
 1978 01d4 2022     		movs	r2, #32
 1979 01d6 F3E7     		b	.L214
 1980              	.L240:
 1981 01d8 4FF40072 		mov	r2, #512
 1982 01dc F0E7     		b	.L214
ARM GAS  /tmp/ccqJv02S.s 			page 57


 1983              	.L241:
 1984 01de 4FF40052 		mov	r2, #8192
 1985 01e2 EDE7     		b	.L214
 1986              	.L242:
 1987 01e4 4FF40032 		mov	r2, #131072
 1988 01e8 EAE7     		b	.L214
 1989              	.L243:
 1990 01ea 4FF40012 		mov	r2, #2097152
 1991 01ee E7E7     		b	.L214
 1992              	.L244:
 1993 01f0 0222     		movs	r2, #2
 1994 01f2 E5E7     		b	.L214
 1995              	.L245:
 1996 01f4 2022     		movs	r2, #32
 1997 01f6 E3E7     		b	.L214
 1998              	.L246:
 1999 01f8 4FF40072 		mov	r2, #512
 2000 01fc E0E7     		b	.L214
 2001              	.L213:
 648:Drivers/STM32F1xx_HAL_Driver/Src/stm32f1xx_hal_dma.c **** 
 2002              		.loc 1 648 0 is_stmt 0 discriminator 2
 2003 01fe 324A     		ldr	r2, .L264+8
 2004 0200 9342     		cmp	r3, r2
 2005 0202 24D0     		beq	.L248
 648:Drivers/STM32F1xx_HAL_Driver/Src/stm32f1xx_hal_dma.c **** 
 2006              		.loc 1 648 0 discriminator 47
 2007 0204 1432     		adds	r2, r2, #20
 2008 0206 9342     		cmp	r3, r2
 2009 0208 25D0     		beq	.L249
 648:Drivers/STM32F1xx_HAL_Driver/Src/stm32f1xx_hal_dma.c **** 
 2010              		.loc 1 648 0 discriminator 49
 2011 020a 1432     		adds	r2, r2, #20
 2012 020c 9342     		cmp	r3, r2
 2013 020e 24D0     		beq	.L250
 648:Drivers/STM32F1xx_HAL_Driver/Src/stm32f1xx_hal_dma.c **** 
 2014              		.loc 1 648 0 discriminator 51
 2015 0210 1432     		adds	r2, r2, #20
 2016 0212 9342     		cmp	r3, r2
 2017 0214 24D0     		beq	.L251
 648:Drivers/STM32F1xx_HAL_Driver/Src/stm32f1xx_hal_dma.c **** 
 2018              		.loc 1 648 0 discriminator 53
 2019 0216 1432     		adds	r2, r2, #20
 2020 0218 9342     		cmp	r3, r2
 2021 021a 24D0     		beq	.L252
 648:Drivers/STM32F1xx_HAL_Driver/Src/stm32f1xx_hal_dma.c **** 
 2022              		.loc 1 648 0 discriminator 55
 2023 021c 1432     		adds	r2, r2, #20
 2024 021e 9342     		cmp	r3, r2
 2025 0220 24D0     		beq	.L253
 648:Drivers/STM32F1xx_HAL_Driver/Src/stm32f1xx_hal_dma.c **** 
 2026              		.loc 1 648 0 discriminator 57
 2027 0222 1432     		adds	r2, r2, #20
 2028 0224 9342     		cmp	r3, r2
 2029 0226 24D0     		beq	.L254
 648:Drivers/STM32F1xx_HAL_Driver/Src/stm32f1xx_hal_dma.c **** 
 2030              		.loc 1 648 0 discriminator 59
 2031 0228 02F56272 		add	r2, r2, #904
ARM GAS  /tmp/ccqJv02S.s 			page 58


 2032 022c 9342     		cmp	r3, r2
 2033 022e 23D0     		beq	.L255
 648:Drivers/STM32F1xx_HAL_Driver/Src/stm32f1xx_hal_dma.c **** 
 2034              		.loc 1 648 0 discriminator 61
 2035 0230 1432     		adds	r2, r2, #20
 2036 0232 9342     		cmp	r3, r2
 2037 0234 22D0     		beq	.L256
 648:Drivers/STM32F1xx_HAL_Driver/Src/stm32f1xx_hal_dma.c **** 
 2038              		.loc 1 648 0 discriminator 63
 2039 0236 1432     		adds	r2, r2, #20
 2040 0238 9342     		cmp	r3, r2
 2041 023a 21D0     		beq	.L257
 648:Drivers/STM32F1xx_HAL_Driver/Src/stm32f1xx_hal_dma.c **** 
 2042              		.loc 1 648 0 discriminator 65
 2043 023c 1432     		adds	r2, r2, #20
 2044 023e 9342     		cmp	r3, r2
 2045 0240 02D0     		beq	.L263
 648:Drivers/STM32F1xx_HAL_Driver/Src/stm32f1xx_hal_dma.c **** 
 2046              		.loc 1 648 0
 2047 0242 4FF40032 		mov	r2, #131072
 2048 0246 03E0     		b	.L216
 2049              	.L263:
 2050 0248 4FF40052 		mov	r2, #8192
 2051 024c 00E0     		b	.L216
 2052              	.L248:
 2053 024e 0222     		movs	r2, #2
 2054              	.L216:
 648:Drivers/STM32F1xx_HAL_Driver/Src/stm32f1xx_hal_dma.c **** 
 2055              		.loc 1 648 0 discriminator 90
 2056 0250 1E4B     		ldr	r3, .L264+12
 2057 0252 5A60     		str	r2, [r3, #4]
 2058 0254 B6E7     		b	.L215
 2059              	.L249:
 648:Drivers/STM32F1xx_HAL_Driver/Src/stm32f1xx_hal_dma.c **** 
 2060              		.loc 1 648 0
 2061 0256 2022     		movs	r2, #32
 2062 0258 FAE7     		b	.L216
 2063              	.L250:
 2064 025a 4FF40072 		mov	r2, #512
 2065 025e F7E7     		b	.L216
 2066              	.L251:
 2067 0260 4FF40052 		mov	r2, #8192
 2068 0264 F4E7     		b	.L216
 2069              	.L252:
 2070 0266 4FF40032 		mov	r2, #131072
 2071 026a F1E7     		b	.L216
 2072              	.L253:
 2073 026c 4FF40012 		mov	r2, #2097152
 2074 0270 EEE7     		b	.L216
 2075              	.L254:
 2076 0272 4FF00072 		mov	r2, #33554432
 2077 0276 EBE7     		b	.L216
 2078              	.L255:
 2079 0278 0222     		movs	r2, #2
 2080 027a E9E7     		b	.L216
 2081              	.L256:
 2082 027c 2022     		movs	r2, #32
ARM GAS  /tmp/ccqJv02S.s 			page 59


 2083 027e E7E7     		b	.L216
 2084              	.L257:
 2085 0280 4FF40072 		mov	r2, #512
 2086 0284 E4E7     		b	.L216
 2087              	.LVL74:
 2088              	.L211:
 661:Drivers/STM32F1xx_HAL_Driver/Src/stm32f1xx_hal_dma.c ****   {
 2089              		.loc 1 661 0 is_stmt 1
 2090 0286 0823     		movs	r3, #8
 2091 0288 03FA01F1 		lsl	r1, r3, r1
 2092 028c 0A42     		tst	r2, r1
 2093 028e 15D0     		beq	.L203
 661:Drivers/STM32F1xx_HAL_Driver/Src/stm32f1xx_hal_dma.c ****   {
 2094              		.loc 1 661 0 is_stmt 0 discriminator 1
 2095 0290 15F0080F 		tst	r5, #8
 2096 0294 12D0     		beq	.L203
 666:Drivers/STM32F1xx_HAL_Driver/Src/stm32f1xx_hal_dma.c **** 
 2097              		.loc 1 666 0 is_stmt 1
 2098 0296 2368     		ldr	r3, [r4]
 2099 0298 23F00E03 		bic	r3, r3, #14
 2100 029c 2360     		str	r3, [r4]
 669:Drivers/STM32F1xx_HAL_Driver/Src/stm32f1xx_hal_dma.c **** 
 2101              		.loc 1 669 0
 2102 029e C16B     		ldr	r1, [r0, #60]
 2103 02a0 026C     		ldr	r2, [r0, #64]
 2104              	.LVL75:
 2105 02a2 0123     		movs	r3, #1
 2106 02a4 03FA02F2 		lsl	r2, r3, r2
 2107 02a8 4A60     		str	r2, [r1, #4]
 672:Drivers/STM32F1xx_HAL_Driver/Src/stm32f1xx_hal_dma.c **** 
 2108              		.loc 1 672 0
 2109 02aa 8363     		str	r3, [r0, #56]
 675:Drivers/STM32F1xx_HAL_Driver/Src/stm32f1xx_hal_dma.c **** 
 2110              		.loc 1 675 0
 2111 02ac 80F82130 		strb	r3, [r0, #33]
 678:Drivers/STM32F1xx_HAL_Driver/Src/stm32f1xx_hal_dma.c **** 
 2112              		.loc 1 678 0
 2113 02b0 0023     		movs	r3, #0
 2114 02b2 80F82030 		strb	r3, [r0, #32]
 680:Drivers/STM32F1xx_HAL_Driver/Src/stm32f1xx_hal_dma.c ****     {
 2115              		.loc 1 680 0
 2116 02b6 036B     		ldr	r3, [r0, #48]
 2117 02b8 03B1     		cbz	r3, .L203
 683:Drivers/STM32F1xx_HAL_Driver/Src/stm32f1xx_hal_dma.c ****     }
 2118              		.loc 1 683 0
 2119 02ba 9847     		blx	r3
 2120              	.LVL76:
 2121              	.L203:
 2122 02bc 38BD     		pop	{r3, r4, r5, pc}
 2123              	.LVL77:
 2124              	.L265:
 2125 02be 00BF     		.align	2
 2126              	.L264:
 2127 02c0 80000240 		.word	1073873024
 2128 02c4 00040240 		.word	1073873920
 2129 02c8 08000240 		.word	1073872904
 2130 02cc 00000240 		.word	1073872896
ARM GAS  /tmp/ccqJv02S.s 			page 60


 2131              		.cfi_endproc
 2132              	.LFE71:
 2134              		.section	.text.HAL_DMA_RegisterCallback,"ax",%progbits
 2135              		.align	1
 2136              		.global	HAL_DMA_RegisterCallback
 2137              		.syntax unified
 2138              		.thumb
 2139              		.thumb_func
 2140              		.fpu softvfp
 2142              	HAL_DMA_RegisterCallback:
 2143              	.LFB72:
 700:Drivers/STM32F1xx_HAL_Driver/Src/stm32f1xx_hal_dma.c ****   HAL_StatusTypeDef status = HAL_OK;
 2144              		.loc 1 700 0
 2145              		.cfi_startproc
 2146              		@ args = 0, pretend = 0, frame = 0
 2147              		@ frame_needed = 0, uses_anonymous_args = 0
 2148              		@ link register save eliminated.
 2149              	.LVL78:
 2150 0000 0346     		mov	r3, r0
 2151              	.LVL79:
 704:Drivers/STM32F1xx_HAL_Driver/Src/stm32f1xx_hal_dma.c ****   
 2152              		.loc 1 704 0
 2153 0002 90F82000 		ldrb	r0, [r0, #32]	@ zero_extendqisi2
 2154              	.LVL80:
 2155 0006 0128     		cmp	r0, #1
 2156 0008 1FD0     		beq	.L274
 704:Drivers/STM32F1xx_HAL_Driver/Src/stm32f1xx_hal_dma.c ****   
 2157              		.loc 1 704 0 is_stmt 0 discriminator 2
 2158 000a 0120     		movs	r0, #1
 2159 000c 83F82000 		strb	r0, [r3, #32]
 706:Drivers/STM32F1xx_HAL_Driver/Src/stm32f1xx_hal_dma.c ****   {
 2160              		.loc 1 706 0 is_stmt 1 discriminator 2
 2161 0010 93F82100 		ldrb	r0, [r3, #33]	@ zero_extendqisi2
 2162 0014 0128     		cmp	r0, #1
 2163 0016 04D0     		beq	.L277
 733:Drivers/STM32F1xx_HAL_Driver/Src/stm32f1xx_hal_dma.c ****   } 
 2164              		.loc 1 733 0
 2165 0018 0120     		movs	r0, #1
 2166              	.L268:
 2167              	.LVL81:
 737:Drivers/STM32F1xx_HAL_Driver/Src/stm32f1xx_hal_dma.c ****   
 2168              		.loc 1 737 0
 2169 001a 0022     		movs	r2, #0
 2170              	.LVL82:
 2171 001c 83F82020 		strb	r2, [r3, #32]
 739:Drivers/STM32F1xx_HAL_Driver/Src/stm32f1xx_hal_dma.c **** }
 2172              		.loc 1 739 0
 2173 0020 7047     		bx	lr
 2174              	.LVL83:
 2175              	.L277:
 708:Drivers/STM32F1xx_HAL_Driver/Src/stm32f1xx_hal_dma.c ****     {
 2176              		.loc 1 708 0
 2177 0022 0329     		cmp	r1, #3
 2178 0024 0FD8     		bhi	.L276
 2179 0026 DFE801F0 		tbb	[pc, r1]
 2180              	.L270:
 2181 002a 02       		.byte	(.L269-.L270)/2
ARM GAS  /tmp/ccqJv02S.s 			page 61


 2182 002b 05       		.byte	(.L271-.L270)/2
 2183 002c 08       		.byte	(.L272-.L270)/2
 2184 002d 0B       		.byte	(.L273-.L270)/2
 2185              		.p2align 1
 2186              	.L269:
 711:Drivers/STM32F1xx_HAL_Driver/Src/stm32f1xx_hal_dma.c ****       break;
 2187              		.loc 1 711 0
 2188 002e 9A62     		str	r2, [r3, #40]
 701:Drivers/STM32F1xx_HAL_Driver/Src/stm32f1xx_hal_dma.c ****   
 2189              		.loc 1 701 0
 2190 0030 0020     		movs	r0, #0
 712:Drivers/STM32F1xx_HAL_Driver/Src/stm32f1xx_hal_dma.c ****       
 2191              		.loc 1 712 0
 2192 0032 F2E7     		b	.L268
 2193              	.L271:
 715:Drivers/STM32F1xx_HAL_Driver/Src/stm32f1xx_hal_dma.c ****       break;         
 2194              		.loc 1 715 0
 2195 0034 DA62     		str	r2, [r3, #44]
 701:Drivers/STM32F1xx_HAL_Driver/Src/stm32f1xx_hal_dma.c ****   
 2196              		.loc 1 701 0
 2197 0036 0020     		movs	r0, #0
 716:Drivers/STM32F1xx_HAL_Driver/Src/stm32f1xx_hal_dma.c **** 
 2198              		.loc 1 716 0
 2199 0038 EFE7     		b	.L268
 2200              	.L272:
 719:Drivers/STM32F1xx_HAL_Driver/Src/stm32f1xx_hal_dma.c ****       break;         
 2201              		.loc 1 719 0
 2202 003a 1A63     		str	r2, [r3, #48]
 701:Drivers/STM32F1xx_HAL_Driver/Src/stm32f1xx_hal_dma.c ****   
 2203              		.loc 1 701 0
 2204 003c 0020     		movs	r0, #0
 720:Drivers/STM32F1xx_HAL_Driver/Src/stm32f1xx_hal_dma.c ****       
 2205              		.loc 1 720 0
 2206 003e ECE7     		b	.L268
 2207              	.L273:
 723:Drivers/STM32F1xx_HAL_Driver/Src/stm32f1xx_hal_dma.c ****       break; 
 2208              		.loc 1 723 0
 2209 0040 5A63     		str	r2, [r3, #52]
 701:Drivers/STM32F1xx_HAL_Driver/Src/stm32f1xx_hal_dma.c ****   
 2210              		.loc 1 701 0
 2211 0042 0020     		movs	r0, #0
 724:Drivers/STM32F1xx_HAL_Driver/Src/stm32f1xx_hal_dma.c ****       
 2212              		.loc 1 724 0
 2213 0044 E9E7     		b	.L268
 2214              	.L276:
 727:Drivers/STM32F1xx_HAL_Driver/Src/stm32f1xx_hal_dma.c ****       break;                                                            
 2215              		.loc 1 727 0
 2216 0046 0120     		movs	r0, #1
 2217 0048 E7E7     		b	.L268
 2218              	.L274:
 704:Drivers/STM32F1xx_HAL_Driver/Src/stm32f1xx_hal_dma.c ****   
 2219              		.loc 1 704 0
 2220 004a 0220     		movs	r0, #2
 740:Drivers/STM32F1xx_HAL_Driver/Src/stm32f1xx_hal_dma.c **** 
 2221              		.loc 1 740 0
 2222 004c 7047     		bx	lr
 2223              		.cfi_endproc
ARM GAS  /tmp/ccqJv02S.s 			page 62


 2224              	.LFE72:
 2226              		.section	.text.HAL_DMA_UnRegisterCallback,"ax",%progbits
 2227              		.align	1
 2228              		.global	HAL_DMA_UnRegisterCallback
 2229              		.syntax unified
 2230              		.thumb
 2231              		.thumb_func
 2232              		.fpu softvfp
 2234              	HAL_DMA_UnRegisterCallback:
 2235              	.LFB73:
 751:Drivers/STM32F1xx_HAL_Driver/Src/stm32f1xx_hal_dma.c ****   HAL_StatusTypeDef status = HAL_OK;
 2236              		.loc 1 751 0
 2237              		.cfi_startproc
 2238              		@ args = 0, pretend = 0, frame = 0
 2239              		@ frame_needed = 0, uses_anonymous_args = 0
 2240              		@ link register save eliminated.
 2241              	.LVL84:
 2242 0000 0346     		mov	r3, r0
 2243              	.LVL85:
 755:Drivers/STM32F1xx_HAL_Driver/Src/stm32f1xx_hal_dma.c ****   
 2244              		.loc 1 755 0
 2245 0002 90F82020 		ldrb	r2, [r0, #32]	@ zero_extendqisi2
 2246 0006 012A     		cmp	r2, #1
 2247 0008 26D0     		beq	.L287
 755:Drivers/STM32F1xx_HAL_Driver/Src/stm32f1xx_hal_dma.c ****   
 2248              		.loc 1 755 0 is_stmt 0 discriminator 2
 2249 000a 0122     		movs	r2, #1
 2250 000c 80F82020 		strb	r2, [r0, #32]
 757:Drivers/STM32F1xx_HAL_Driver/Src/stm32f1xx_hal_dma.c ****   {
 2251              		.loc 1 757 0 is_stmt 1 discriminator 2
 2252 0010 90F82120 		ldrb	r2, [r0, #33]	@ zero_extendqisi2
 2253 0014 012A     		cmp	r2, #1
 2254 0016 04D0     		beq	.L290
 791:Drivers/STM32F1xx_HAL_Driver/Src/stm32f1xx_hal_dma.c ****   } 
 2255              		.loc 1 791 0
 2256 0018 0120     		movs	r0, #1
 2257              	.LVL86:
 2258              	.L280:
 795:Drivers/STM32F1xx_HAL_Driver/Src/stm32f1xx_hal_dma.c ****   
 2259              		.loc 1 795 0
 2260 001a 0022     		movs	r2, #0
 2261 001c 83F82020 		strb	r2, [r3, #32]
 797:Drivers/STM32F1xx_HAL_Driver/Src/stm32f1xx_hal_dma.c **** }
 2262              		.loc 1 797 0
 2263 0020 7047     		bx	lr
 2264              	.LVL87:
 2265              	.L290:
 759:Drivers/STM32F1xx_HAL_Driver/Src/stm32f1xx_hal_dma.c ****     {
 2266              		.loc 1 759 0
 2267 0022 0429     		cmp	r1, #4
 2268 0024 16D8     		bhi	.L289
 2269 0026 DFE801F0 		tbb	[pc, r1]
 2270              	.L282:
 2271 002a 03       		.byte	(.L281-.L282)/2
 2272 002b 06       		.byte	(.L283-.L282)/2
 2273 002c 09       		.byte	(.L284-.L282)/2
 2274 002d 0C       		.byte	(.L285-.L282)/2
ARM GAS  /tmp/ccqJv02S.s 			page 63


 2275 002e 0F       		.byte	(.L286-.L282)/2
 2276 002f 00       		.p2align 1
 2277              	.L281:
 762:Drivers/STM32F1xx_HAL_Driver/Src/stm32f1xx_hal_dma.c ****       break;
 2278              		.loc 1 762 0
 2279 0030 0020     		movs	r0, #0
 2280              	.LVL88:
 2281 0032 9862     		str	r0, [r3, #40]
 763:Drivers/STM32F1xx_HAL_Driver/Src/stm32f1xx_hal_dma.c **** 
 2282              		.loc 1 763 0
 2283 0034 F1E7     		b	.L280
 2284              	.LVL89:
 2285              	.L283:
 766:Drivers/STM32F1xx_HAL_Driver/Src/stm32f1xx_hal_dma.c ****       break;         
 2286              		.loc 1 766 0
 2287 0036 0020     		movs	r0, #0
 2288              	.LVL90:
 2289 0038 D862     		str	r0, [r3, #44]
 767:Drivers/STM32F1xx_HAL_Driver/Src/stm32f1xx_hal_dma.c **** 
 2290              		.loc 1 767 0
 2291 003a EEE7     		b	.L280
 2292              	.LVL91:
 2293              	.L284:
 770:Drivers/STM32F1xx_HAL_Driver/Src/stm32f1xx_hal_dma.c ****       break;         
 2294              		.loc 1 770 0
 2295 003c 0020     		movs	r0, #0
 2296              	.LVL92:
 2297 003e 1863     		str	r0, [r3, #48]
 771:Drivers/STM32F1xx_HAL_Driver/Src/stm32f1xx_hal_dma.c **** 
 2298              		.loc 1 771 0
 2299 0040 EBE7     		b	.L280
 2300              	.LVL93:
 2301              	.L285:
 774:Drivers/STM32F1xx_HAL_Driver/Src/stm32f1xx_hal_dma.c ****       break; 
 2302              		.loc 1 774 0
 2303 0042 0020     		movs	r0, #0
 2304              	.LVL94:
 2305 0044 5863     		str	r0, [r3, #52]
 775:Drivers/STM32F1xx_HAL_Driver/Src/stm32f1xx_hal_dma.c **** 
 2306              		.loc 1 775 0
 2307 0046 E8E7     		b	.L280
 2308              	.LVL95:
 2309              	.L286:
 778:Drivers/STM32F1xx_HAL_Driver/Src/stm32f1xx_hal_dma.c ****       hdma->XferHalfCpltCallback = NULL;
 2310              		.loc 1 778 0
 2311 0048 0020     		movs	r0, #0
 2312              	.LVL96:
 2313 004a 9862     		str	r0, [r3, #40]
 779:Drivers/STM32F1xx_HAL_Driver/Src/stm32f1xx_hal_dma.c ****       hdma->XferErrorCallback = NULL;
 2314              		.loc 1 779 0
 2315 004c D862     		str	r0, [r3, #44]
 780:Drivers/STM32F1xx_HAL_Driver/Src/stm32f1xx_hal_dma.c ****       hdma->XferAbortCallback = NULL;
 2316              		.loc 1 780 0
 2317 004e 1863     		str	r0, [r3, #48]
 781:Drivers/STM32F1xx_HAL_Driver/Src/stm32f1xx_hal_dma.c ****       break; 
 2318              		.loc 1 781 0
 2319 0050 5863     		str	r0, [r3, #52]
ARM GAS  /tmp/ccqJv02S.s 			page 64


 782:Drivers/STM32F1xx_HAL_Driver/Src/stm32f1xx_hal_dma.c **** 
 2320              		.loc 1 782 0
 2321 0052 E2E7     		b	.L280
 2322              	.LVL97:
 2323              	.L289:
 785:Drivers/STM32F1xx_HAL_Driver/Src/stm32f1xx_hal_dma.c ****       break;
 2324              		.loc 1 785 0
 2325 0054 0120     		movs	r0, #1
 2326              	.LVL98:
 2327 0056 E0E7     		b	.L280
 2328              	.LVL99:
 2329              	.L287:
 755:Drivers/STM32F1xx_HAL_Driver/Src/stm32f1xx_hal_dma.c ****   
 2330              		.loc 1 755 0
 2331 0058 0220     		movs	r0, #2
 2332              	.LVL100:
 798:Drivers/STM32F1xx_HAL_Driver/Src/stm32f1xx_hal_dma.c ****   
 2333              		.loc 1 798 0
 2334 005a 7047     		bx	lr
 2335              		.cfi_endproc
 2336              	.LFE73:
 2338              		.section	.text.HAL_DMA_GetState,"ax",%progbits
 2339              		.align	1
 2340              		.global	HAL_DMA_GetState
 2341              		.syntax unified
 2342              		.thumb
 2343              		.thumb_func
 2344              		.fpu softvfp
 2346              	HAL_DMA_GetState:
 2347              	.LFB74:
 827:Drivers/STM32F1xx_HAL_Driver/Src/stm32f1xx_hal_dma.c ****   /* Return DMA handle state */
 2348              		.loc 1 827 0
 2349              		.cfi_startproc
 2350              		@ args = 0, pretend = 0, frame = 0
 2351              		@ frame_needed = 0, uses_anonymous_args = 0
 2352              		@ link register save eliminated.
 2353              	.LVL101:
 830:Drivers/STM32F1xx_HAL_Driver/Src/stm32f1xx_hal_dma.c **** 
 2354              		.loc 1 830 0
 2355 0000 90F82100 		ldrb	r0, [r0, #33]	@ zero_extendqisi2
 2356              	.LVL102:
 2357 0004 7047     		bx	lr
 2358              		.cfi_endproc
 2359              	.LFE74:
 2361              		.section	.text.HAL_DMA_GetError,"ax",%progbits
 2362              		.align	1
 2363              		.global	HAL_DMA_GetError
 2364              		.syntax unified
 2365              		.thumb
 2366              		.thumb_func
 2367              		.fpu softvfp
 2369              	HAL_DMA_GetError:
 2370              	.LFB75:
 839:Drivers/STM32F1xx_HAL_Driver/Src/stm32f1xx_hal_dma.c ****   return hdma->ErrorCode;
 2371              		.loc 1 839 0
 2372              		.cfi_startproc
 2373              		@ args = 0, pretend = 0, frame = 0
ARM GAS  /tmp/ccqJv02S.s 			page 65


 2374              		@ frame_needed = 0, uses_anonymous_args = 0
 2375              		@ link register save eliminated.
 2376              	.LVL103:
 840:Drivers/STM32F1xx_HAL_Driver/Src/stm32f1xx_hal_dma.c **** }
 2377              		.loc 1 840 0
 2378 0000 806B     		ldr	r0, [r0, #56]
 2379              	.LVL104:
 841:Drivers/STM32F1xx_HAL_Driver/Src/stm32f1xx_hal_dma.c **** 
 2380              		.loc 1 841 0
 2381 0002 7047     		bx	lr
 2382              		.cfi_endproc
 2383              	.LFE75:
 2385              		.text
 2386              	.Letext0:
 2387              		.file 2 "/usr/include/newlib/machine/_default_types.h"
 2388              		.file 3 "/usr/include/newlib/sys/_stdint.h"
 2389              		.file 4 "Drivers/CMSIS/Include/core_cm3.h"
 2390              		.file 5 "Drivers/CMSIS/Device/ST/STM32F1xx/Include/system_stm32f1xx.h"
 2391              		.file 6 "Drivers/CMSIS/Device/ST/STM32F1xx/Include/stm32f103xe.h"
 2392              		.file 7 "/usr/include/newlib/sys/lock.h"
 2393              		.file 8 "/usr/include/newlib/sys/_types.h"
 2394              		.file 9 "/usr/lib/gcc/arm-none-eabi/6.3.1/include/stddef.h"
 2395              		.file 10 "/usr/include/newlib/sys/reent.h"
 2396              		.file 11 "Drivers/CMSIS/Device/ST/STM32F1xx/Include/stm32f1xx.h"
 2397              		.file 12 "Drivers/STM32F1xx_HAL_Driver/Inc/stm32f1xx_hal_def.h"
 2398              		.file 13 "Drivers/STM32F1xx_HAL_Driver/Inc/stm32f1xx_hal_dma.h"
 2399              		.file 14 "Drivers/STM32F1xx_HAL_Driver/Inc/stm32f1xx_hal.h"
ARM GAS  /tmp/ccqJv02S.s 			page 66

